
/home/adam/.cache/arduino/sketches/CC375225E5225D32938E07103DB84528/firmware.ino.elf:     file format elf32-avr


Disassembly of section .text:

00000000 <__vectors>:
__vectors():
../../../../../crt1/gcrt1.S:63
       0:	37 c0       	rjmp	.+110    	; 0x70 <__ctors_end>
../../../../../crt1/gcrt1.S:67
       2:	67 c0       	rjmp	.+206    	; 0xd2 <__bad_interrupt>
../../../../../crt1/gcrt1.S:68
       4:	66 c0       	rjmp	.+204    	; 0xd2 <__bad_interrupt>
../../../../../crt1/gcrt1.S:69
       6:	80 c9       	rjmp	.-3328   	; 0xfffff308 <__eeprom_end+0xff7ef308>
../../../../../crt1/gcrt1.S:70
       8:	64 c0       	rjmp	.+200    	; 0xd2 <__bad_interrupt>
../../../../../crt1/gcrt1.S:71
       a:	63 c0       	rjmp	.+198    	; 0xd2 <__bad_interrupt>
../../../../../crt1/gcrt1.S:72
       c:	62 c0       	rjmp	.+196    	; 0xd2 <__bad_interrupt>
../../../../../crt1/gcrt1.S:73
       e:	7e c8       	rjmp	.-3844   	; 0xfffff10c <__eeprom_end+0xff7ef10c>
../../../../../crt1/gcrt1.S:74
      10:	60 c0       	rjmp	.+192    	; 0xd2 <__bad_interrupt>
../../../../../crt1/gcrt1.S:75
      12:	5f c0       	rjmp	.+190    	; 0xd2 <__bad_interrupt>
../../../../../crt1/gcrt1.S:76
      14:	5e c0       	rjmp	.+188    	; 0xd2 <__bad_interrupt>
../../../../../crt1/gcrt1.S:77
      16:	5d c0       	rjmp	.+186    	; 0xd2 <__bad_interrupt>
../../../../../crt1/gcrt1.S:78
      18:	5c c0       	rjmp	.+184    	; 0xd2 <__bad_interrupt>
../../../../../crt1/gcrt1.S:79
      1a:	5b c0       	rjmp	.+182    	; 0xd2 <__bad_interrupt>
../../../../../crt1/gcrt1.S:80
      1c:	f3 c7       	rjmp	.+4070   	; 0x1004 <__vector_14>
../../../../../crt1/gcrt1.S:81
      1e:	59 c0       	rjmp	.+178    	; 0xd2 <__bad_interrupt>
../../../../../crt1/gcrt1.S:82
      20:	58 c0       	rjmp	.+176    	; 0xd2 <__bad_interrupt>
../../../../../crt1/gcrt1.S:83
      22:	1f c8       	rjmp	.-4034   	; 0xfffff062 <__eeprom_end+0xff7ef062>
../../../../../crt1/gcrt1.S:84
      24:	1e c8       	rjmp	.-4036   	; 0xfffff062 <__eeprom_end+0xff7ef062>
../../../../../crt1/gcrt1.S:85
      26:	55 c0       	rjmp	.+170    	; 0xd2 <__bad_interrupt>
../../../../../crt1/gcrt1.S:86
      28:	54 c0       	rjmp	.+168    	; 0xd2 <__bad_interrupt>
../../../../../crt1/gcrt1.S:87
      2a:	53 c0       	rjmp	.+166    	; 0xd2 <__bad_interrupt>
../../../../../crt1/gcrt1.S:88
      2c:	52 c0       	rjmp	.+164    	; 0xd2 <__bad_interrupt>
../../../../../crt1/gcrt1.S:89
      2e:	51 c0       	rjmp	.+162    	; 0xd2 <__bad_interrupt>
../../../../../crt1/gcrt1.S:90
      30:	50 c0       	rjmp	.+160    	; 0xd2 <__bad_interrupt>
../../../../../crt1/gcrt1.S:91
      32:	4f c0       	rjmp	.+158    	; 0xd2 <__bad_interrupt>

00000034 <__trampolines_end>:
__trampolines_start():
      34:	07 08       	sbc	r0, r7
      36:	00 01       	movw	r0, r0
      38:	02 03       	mulsu	r16, r18
      3a:	04 05       	cpc	r16, r4
      3c:	06 0a       	sbc	r0, r22
      3e:	09 11       	cpse	r16, r9
      40:	10 0f       	add	r17, r16
      42:	0e 0d       	add	r16, r14
      44:	0c 0b       	sbc	r16, r28

00000046 <SPIN_LEDS_RIGHT>:
      46:	0a 09 11 10 0f 0e 0d 0c 0b                          .........

0000004f <SPIN_LEDS_LEFT>:
      4f:	07 08 00 01 02 03 04 05 06                          .........

00000058 <KNIGHT_RIDER_LEDS>:
      58:	02 ff 01 03 00 04 08 05 06 07 07 0a 0b 09 0c 11     ................
      68:	0d 10 0e 0f 0f ff                                   ......

0000006e <__ctors_start>:
__ctors_start():
      6e:	63 0f       	add	r22, r19

00000070 <__ctors_end>:
__dtors_end():
../../../../../crt1/gcrt1.S:230
      70:	11 24       	eor	r1, r1
../../../../../crt1/gcrt1.S:231
      72:	1f be       	out	0x3f, r1	; 63
../../../../../crt1/gcrt1.S:232
      74:	cf ef       	ldi	r28, 0xFF	; 255
../../../../../crt1/gcrt1.S:234
      76:	cd bf       	out	0x3d, r28	; 61
../../../../../crt1/gcrt1.S:236
      78:	df e3       	ldi	r29, 0x3F	; 63
../../../../../crt1/gcrt1.S:237
      7a:	de bf       	out	0x3e, r29	; 62

0000007c <_initThreeStuff()>:
_Z15_initThreeStuffv():
/home/adam/.arduino15/packages/megaTinyCore/hardware/megaavr/2.6.11/cores/megatinycore/main.cpp:104

  /* Minimum: Reset if we wound up here through malfunction - this relies on user clearing the  *
   * register on startup, which is rarely done in Arduino land.                                 */
  void __attribute__((weak)) init_reset_flags() ;
  void __attribute__((weak)) init_reset_flags() {
    uint8_t flags = RSTCTRL.RSTFR;
      7c:	80 91 40 00 	lds	r24, 0x0040	; 0x800040 <digital_pin_to_bit_mask+0x7f6068>
/home/adam/.arduino15/packages/megaTinyCore/hardware/megaavr/2.6.11/cores/megatinycore/main.cpp:105
    RSTCTRL.RSTFR = flags;
      80:	80 93 40 00 	sts	0x0040, r24	; 0x800040 <digital_pin_to_bit_mask+0x7f6068>
/home/adam/.arduino15/packages/megaTinyCore/hardware/megaavr/2.6.11/cores/megatinycore/main.cpp:106
    if (flags == 0) {
      84:	81 11       	cpse	r24, r1
      86:	05 c0       	rjmp	.+10     	; 0x92 <__EEPROM_REGION_LENGTH__+0x12>
/home/adam/.arduino15/packages/megaTinyCore/hardware/megaavr/2.6.11/cores/megatinycore/main.cpp:107
      _PROTECTED_WRITE(RSTCTRL.SWRR, 1);
      88:	98 ed       	ldi	r25, 0xD8	; 216
      8a:	21 e0       	ldi	r18, 0x01	; 1
      8c:	94 bf       	out	0x34, r25	; 52
      8e:	20 93 41 00 	sts	0x0041, r18	; 0x800041 <digital_pin_to_bit_mask+0x7f6069>
/home/adam/.arduino15/packages/megaTinyCore/hardware/megaavr/2.6.11/cores/megatinycore/main.cpp:109
    }
    GPIOR0 = flags;
      92:	8c bb       	out	0x1c, r24	; 28

00000094 <__do_copy_data>:
__do_copy_data():
/home/admin/Arduino/toolchain-avr-special-master/gcc-build/avr/avrxmega3/short-calls/libgcc/../../../../../gcc/libgcc/config/avr/lib1funcs.S:2409
      94:	1e e3       	ldi	r17, 0x3E	; 62
/home/admin/Arduino/toolchain-avr-special-master/gcc-build/avr/avrxmega3/short-calls/libgcc/../../../../../gcc/libgcc/config/avr/lib1funcs.S:2410
      96:	a0 e0       	ldi	r26, 0x00	; 0
/home/admin/Arduino/toolchain-avr-special-master/gcc-build/avr/avrxmega3/short-calls/libgcc/../../../../../gcc/libgcc/config/avr/lib1funcs.S:2411
      98:	be e3       	ldi	r27, 0x3E	; 62
/home/admin/Arduino/toolchain-avr-special-master/gcc-build/avr/avrxmega3/short-calls/libgcc/../../../../../gcc/libgcc/config/avr/lib1funcs.S:2412
      9a:	e4 ee       	ldi	r30, 0xE4	; 228
/home/admin/Arduino/toolchain-avr-special-master/gcc-build/avr/avrxmega3/short-calls/libgcc/../../../../../gcc/libgcc/config/avr/lib1funcs.S:2413
      9c:	ff e1       	ldi	r31, 0x1F	; 31
/home/admin/Arduino/toolchain-avr-special-master/gcc-build/avr/avrxmega3/short-calls/libgcc/../../../../../gcc/libgcc/config/avr/lib1funcs.S:2414
      9e:	02 c0       	rjmp	.+4      	; 0xa4 <__do_copy_data+0x10>
/home/admin/Arduino/toolchain-avr-special-master/gcc-build/avr/avrxmega3/short-calls/libgcc/../../../../../gcc/libgcc/config/avr/lib1funcs.S:2417
      a0:	05 90       	lpm	r0, Z+
/home/admin/Arduino/toolchain-avr-special-master/gcc-build/avr/avrxmega3/short-calls/libgcc/../../../../../gcc/libgcc/config/avr/lib1funcs.S:2422
      a2:	0d 92       	st	X+, r0
/home/admin/Arduino/toolchain-avr-special-master/gcc-build/avr/avrxmega3/short-calls/libgcc/../../../../../gcc/libgcc/config/avr/lib1funcs.S:2424
      a4:	a2 30       	cpi	r26, 0x02	; 2
/home/admin/Arduino/toolchain-avr-special-master/gcc-build/avr/avrxmega3/short-calls/libgcc/../../../../../gcc/libgcc/config/avr/lib1funcs.S:2425
      a6:	b1 07       	cpc	r27, r17
/home/admin/Arduino/toolchain-avr-special-master/gcc-build/avr/avrxmega3/short-calls/libgcc/../../../../../gcc/libgcc/config/avr/lib1funcs.S:2426
      a8:	d9 f7       	brne	.-10     	; 0xa0 <__do_copy_data+0xc>

000000aa <__do_clear_bss>:
__do_clear_bss():
/home/admin/Arduino/toolchain-avr-special-master/gcc-build/avr/avrxmega3/short-calls/libgcc/../../../../../gcc/libgcc/config/avr/lib1funcs.S:2441
      aa:	2e e3       	ldi	r18, 0x3E	; 62
/home/admin/Arduino/toolchain-avr-special-master/gcc-build/avr/avrxmega3/short-calls/libgcc/../../../../../gcc/libgcc/config/avr/lib1funcs.S:2442
      ac:	a2 e0       	ldi	r26, 0x02	; 2
/home/admin/Arduino/toolchain-avr-special-master/gcc-build/avr/avrxmega3/short-calls/libgcc/../../../../../gcc/libgcc/config/avr/lib1funcs.S:2443
      ae:	be e3       	ldi	r27, 0x3E	; 62
/home/admin/Arduino/toolchain-avr-special-master/gcc-build/avr/avrxmega3/short-calls/libgcc/../../../../../gcc/libgcc/config/avr/lib1funcs.S:2444
      b0:	01 c0       	rjmp	.+2      	; 0xb4 <.do_clear_bss_start>

000000b2 <.do_clear_bss_loop>:
/home/admin/Arduino/toolchain-avr-special-master/gcc-build/avr/avrxmega3/short-calls/libgcc/../../../../../gcc/libgcc/config/avr/lib1funcs.S:2446
      b2:	1d 92       	st	X+, r1

000000b4 <.do_clear_bss_start>:
/home/admin/Arduino/toolchain-avr-special-master/gcc-build/avr/avrxmega3/short-calls/libgcc/../../../../../gcc/libgcc/config/avr/lib1funcs.S:2448
      b4:	a0 3f       	cpi	r26, 0xF0	; 240
/home/admin/Arduino/toolchain-avr-special-master/gcc-build/avr/avrxmega3/short-calls/libgcc/../../../../../gcc/libgcc/config/avr/lib1funcs.S:2449
      b6:	b2 07       	cpc	r27, r18
/home/admin/Arduino/toolchain-avr-special-master/gcc-build/avr/avrxmega3/short-calls/libgcc/../../../../../gcc/libgcc/config/avr/lib1funcs.S:2450
      b8:	e1 f7       	brne	.-8      	; 0xb2 <.do_clear_bss_loop>

000000ba <__do_global_ctors>:
__do_global_ctors():
/home/admin/Arduino/toolchain-avr-special-master/gcc-build/avr/avrxmega3/short-calls/libgcc/../../../../../gcc/libgcc/config/avr/lib1funcs.S:2466
      ba:	10 e0       	ldi	r17, 0x00	; 0
/home/admin/Arduino/toolchain-avr-special-master/gcc-build/avr/avrxmega3/short-calls/libgcc/../../../../../gcc/libgcc/config/avr/lib1funcs.S:2467
      bc:	c8 e3       	ldi	r28, 0x38	; 56
/home/admin/Arduino/toolchain-avr-special-master/gcc-build/avr/avrxmega3/short-calls/libgcc/../../../../../gcc/libgcc/config/avr/lib1funcs.S:2468
      be:	d0 e0       	ldi	r29, 0x00	; 0
/home/admin/Arduino/toolchain-avr-special-master/gcc-build/avr/avrxmega3/short-calls/libgcc/../../../../../gcc/libgcc/config/avr/lib1funcs.S:2472
      c0:	03 c0       	rjmp	.+6      	; 0xc8 <__do_global_ctors+0xe>
/home/admin/Arduino/toolchain-avr-special-master/gcc-build/avr/avrxmega3/short-calls/libgcc/../../../../../gcc/libgcc/config/avr/lib1funcs.S:2474
      c2:	21 97       	sbiw	r28, 0x01	; 1
/home/admin/Arduino/toolchain-avr-special-master/gcc-build/avr/avrxmega3/short-calls/libgcc/../../../../../gcc/libgcc/config/avr/lib1funcs.S:2480
      c4:	fe 01       	movw	r30, r28
/home/admin/Arduino/toolchain-avr-special-master/gcc-build/avr/avrxmega3/short-calls/libgcc/../../../../../gcc/libgcc/config/avr/lib1funcs.S:2481
      c6:	56 df       	rcall	.-340    	; 0xffffff74 <__eeprom_end+0xff7eff74>
/home/admin/Arduino/toolchain-avr-special-master/gcc-build/avr/avrxmega3/short-calls/libgcc/../../../../../gcc/libgcc/config/avr/lib1funcs.S:2483
      c8:	c7 33       	cpi	r28, 0x37	; 55
/home/admin/Arduino/toolchain-avr-special-master/gcc-build/avr/avrxmega3/short-calls/libgcc/../../../../../gcc/libgcc/config/avr/lib1funcs.S:2484
      ca:	d1 07       	cpc	r29, r17
/home/admin/Arduino/toolchain-avr-special-master/gcc-build/avr/avrxmega3/short-calls/libgcc/../../../../../gcc/libgcc/config/avr/lib1funcs.S:2489
      cc:	d1 f7       	brne	.-12     	; 0xc2 <__do_global_ctors+0x8>
../../../../../crt1/gcrt1.S:314
      ce:	37 d9       	rcall	.-3474   	; 0xfffff33e <__eeprom_end+0xff7ef33e>
../../../../../crt1/gcrt1.S:315
      d0:	63 cf       	rjmp	.-314    	; 0xffffff98 <__eeprom_end+0xff7eff98>

000000d2 <__bad_interrupt>:
__vector_22():
../../../../../crt1/gcrt1.S:209
      d2:	96 cf       	rjmp	.-212    	; 0x0 <__vectors>

000000d4 <tinyNeoPixel::setPixelColor(unsigned int, unsigned char, unsigned char, unsigned char) [clone .constprop.15]>:
_ZN12tinyNeoPixel13setPixelColorEjhhh.constprop.15():
/home/adam/.arduino15/packages/megaTinyCore/hardware/megaavr/2.6.11/libraries/tinyNeoPixel_Static/tinyNeoPixel_Static.cpp:1088
  pinMask = digitalPinToBitMask(p);
}

// Set pixel color from separate R,G,B components:
void tinyNeoPixel::setPixelColor(uint16_t n, uint8_t r, uint8_t g, uint8_t b) {
  if (n < numLEDs) {
      d4:	e0 91 db 3e 	lds	r30, 0x3EDB	; 0x803edb <ledStrip>
      d8:	f0 91 dc 3e 	lds	r31, 0x3EDC	; 0x803edc <ledStrip+0x1>
      dc:	8e 17       	cp	r24, r30
      de:	9f 07       	cpc	r25, r31
      e0:	98 f5       	brcc	.+102    	; 0x148 <tinyNeoPixel::setPixelColor(unsigned int, unsigned char, unsigned char, unsigned char) [clone .constprop.15]+0x74>
/home/adam/.arduino15/packages/megaTinyCore/hardware/megaavr/2.6.11/libraries/tinyNeoPixel_Static/tinyNeoPixel_Static.cpp:1089
    if (brightness) { // See notes in setBrightness()
      e2:	30 91 e2 3e 	lds	r19, 0x3EE2	; 0x803ee2 <ledStrip+0x7>
      e6:	33 23       	and	r19, r19
      e8:	61 f0       	breq	.+24     	; 0x102 <tinyNeoPixel::setPixelColor(unsigned int, unsigned char, unsigned char, unsigned char) [clone .constprop.15]+0x2e>
/home/adam/.arduino15/packages/megaTinyCore/hardware/megaavr/2.6.11/libraries/tinyNeoPixel_Static/tinyNeoPixel_Static.cpp:1090
      r = (r * brightness) >> 8;
      ea:	63 9f       	mul	r22, r19
      ec:	b0 01       	movw	r22, r0
      ee:	11 24       	eor	r1, r1
      f0:	67 2f       	mov	r22, r23
/home/adam/.arduino15/packages/megaTinyCore/hardware/megaavr/2.6.11/libraries/tinyNeoPixel_Static/tinyNeoPixel_Static.cpp:1091
      g = (g * brightness) >> 8;
      f2:	34 9f       	mul	r19, r20
      f4:	a0 01       	movw	r20, r0
      f6:	11 24       	eor	r1, r1
      f8:	45 2f       	mov	r20, r21
/home/adam/.arduino15/packages/megaTinyCore/hardware/megaavr/2.6.11/libraries/tinyNeoPixel_Static/tinyNeoPixel_Static.cpp:1092
      b = (b * brightness) >> 8;
      fa:	32 9f       	mul	r19, r18
      fc:	90 01       	movw	r18, r0
      fe:	11 24       	eor	r1, r1
     100:	23 2f       	mov	r18, r19
/home/adam/.arduino15/packages/megaTinyCore/hardware/megaavr/2.6.11/libraries/tinyNeoPixel_Static/tinyNeoPixel_Static.cpp:1095
    }
    uint8_t *p;
    if (wOffset == rOffset) { // Is an RGB-type strip
     102:	30 91 e8 3e 	lds	r19, 0x3EE8	; 0x803ee8 <ledStrip+0xd>
     106:	e0 91 e3 3e 	lds	r30, 0x3EE3	; 0x803ee3 <ledStrip+0x8>
     10a:	f0 91 e4 3e 	lds	r31, 0x3EE4	; 0x803ee4 <ledStrip+0x9>
     10e:	50 91 e5 3e 	lds	r21, 0x3EE5	; 0x803ee5 <ledStrip+0xa>
     112:	35 13       	cpse	r19, r21
     114:	1a c0       	rjmp	.+52     	; 0x14a <tinyNeoPixel::setPixelColor(unsigned int, unsigned char, unsigned char, unsigned char) [clone .constprop.15]+0x76>
/home/adam/.arduino15/packages/megaTinyCore/hardware/megaavr/2.6.11/libraries/tinyNeoPixel_Static/tinyNeoPixel_Static.cpp:1096
      p = &pixels[n * 3];    // 3 bytes per pixel
     116:	dc 01       	movw	r26, r24
     118:	aa 0f       	add	r26, r26
     11a:	bb 1f       	adc	r27, r27
     11c:	8a 0f       	add	r24, r26
     11e:	9b 1f       	adc	r25, r27
     120:	8e 0f       	add	r24, r30
     122:	9f 1f       	adc	r25, r31
/home/adam/.arduino15/packages/megaTinyCore/hardware/megaavr/2.6.11/libraries/tinyNeoPixel_Static/tinyNeoPixel_Static.cpp:1101
    } else {                 // Is a WRGB-type strip
      p = &pixels[n * 4];    // 4 bytes per pixel
      p[wOffset] = 0;        // But only R,G,B passed -- set W to 0
    }
    p[rOffset] = r;          // R,G,B always stored
     124:	e0 91 e5 3e 	lds	r30, 0x3EE5	; 0x803ee5 <ledStrip+0xa>
     128:	e8 0f       	add	r30, r24
     12a:	f9 2f       	mov	r31, r25
     12c:	f1 1d       	adc	r31, r1
     12e:	60 83       	st	Z, r22
/home/adam/.arduino15/packages/megaTinyCore/hardware/megaavr/2.6.11/libraries/tinyNeoPixel_Static/tinyNeoPixel_Static.cpp:1102
    p[gOffset] = g;
     130:	e0 91 e6 3e 	lds	r30, 0x3EE6	; 0x803ee6 <ledStrip+0xb>
     134:	e8 0f       	add	r30, r24
     136:	f9 2f       	mov	r31, r25
     138:	f1 1d       	adc	r31, r1
     13a:	40 83       	st	Z, r20
/home/adam/.arduino15/packages/megaTinyCore/hardware/megaavr/2.6.11/libraries/tinyNeoPixel_Static/tinyNeoPixel_Static.cpp:1103
    p[bOffset] = b;
     13c:	30 91 e7 3e 	lds	r19, 0x3EE7	; 0x803ee7 <ledStrip+0xc>
     140:	83 0f       	add	r24, r19
     142:	91 1d       	adc	r25, r1
     144:	fc 01       	movw	r30, r24
     146:	20 83       	st	Z, r18
/home/adam/.arduino15/packages/megaTinyCore/hardware/megaavr/2.6.11/libraries/tinyNeoPixel_Static/tinyNeoPixel_Static.cpp:1105
  }
}
     148:	08 95       	ret
/home/adam/.arduino15/packages/megaTinyCore/hardware/megaavr/2.6.11/libraries/tinyNeoPixel_Static/tinyNeoPixel_Static.cpp:1098
    }
    uint8_t *p;
    if (wOffset == rOffset) { // Is an RGB-type strip
      p = &pixels[n * 3];    // 3 bytes per pixel
    } else {                 // Is a WRGB-type strip
      p = &pixels[n * 4];    // 4 bytes per pixel
     14a:	88 0f       	add	r24, r24
     14c:	99 1f       	adc	r25, r25
     14e:	88 0f       	add	r24, r24
     150:	99 1f       	adc	r25, r25
     152:	8e 0f       	add	r24, r30
     154:	9f 1f       	adc	r25, r31
/home/adam/.arduino15/packages/megaTinyCore/hardware/megaavr/2.6.11/libraries/tinyNeoPixel_Static/tinyNeoPixel_Static.cpp:1099
      p[wOffset] = 0;        // But only R,G,B passed -- set W to 0
     156:	fc 01       	movw	r30, r24
     158:	e3 0f       	add	r30, r19
     15a:	f1 1d       	adc	r31, r1
     15c:	10 82       	st	Z, r1
     15e:	e2 cf       	rjmp	.-60     	; 0x124 <tinyNeoPixel::setPixelColor(unsigned int, unsigned char, unsigned char, unsigned char) [clone .constprop.15]+0x50>

00000160 <delay.part.0>:
delay.part.0():
/home/adam/.arduino15/packages/megaTinyCore/hardware/megaavr/2.6.11/cores/megatinycore/wiring.c:243
        start += 1000;
      }
    }
  }
#else
  void delay(uint32_t ms) {
     160:	0f 93       	push	r16
     162:	1f 93       	push	r17
     164:	ab 01       	movw	r20, r22
     166:	bc 01       	movw	r22, r24
millis():
/home/adam/.arduino15/packages/megaTinyCore/hardware/megaavr/2.6.11/cores/megatinycore/wiring.c:167
  unsigned long millis() {
    // return timer_overflow_count; // for debugging timekeeping issues where these variables are out of scope from the sketch
    unsigned long m;
    // disable interrupts while we read timer_millis or we might get an
    // inconsistent value (e.g. in the middle of a write to timer_millis)
    uint8_t oldSREG = SREG;
     168:	8f b7       	in	r24, 0x3f	; 63
/home/adam/.arduino15/packages/megaTinyCore/hardware/megaavr/2.6.11/cores/megatinycore/wiring.c:168
    cli();
     16a:	f8 94       	cli
/home/adam/.arduino15/packages/megaTinyCore/hardware/megaavr/2.6.11/cores/megatinycore/wiring.c:182
        if (!(rtccount & 0x8000)) m += 64000;
      }
      SREG = oldSREG;
      m += rtccount - (rtccount >> 5) + (rtccount >> 7);
    #else
      m = timingStruct.timer_millis;
     16c:	00 91 d5 3e 	lds	r16, 0x3ED5	; 0x803ed5 <timingStruct+0x4>
     170:	10 91 d6 3e 	lds	r17, 0x3ED6	; 0x803ed6 <timingStruct+0x5>
     174:	20 91 d7 3e 	lds	r18, 0x3ED7	; 0x803ed7 <timingStruct+0x6>
     178:	30 91 d8 3e 	lds	r19, 0x3ED8	; 0x803ed8 <timingStruct+0x7>
/home/adam/.arduino15/packages/megaTinyCore/hardware/megaavr/2.6.11/cores/megatinycore/wiring.c:183
      SREG = oldSREG;
     17c:	8f bf       	out	0x3f, r24	; 63
/home/adam/.arduino15/packages/megaTinyCore/hardware/megaavr/2.6.11/cores/megatinycore/wiring.c:167
  unsigned long millis() {
    // return timer_overflow_count; // for debugging timekeeping issues where these variables are out of scope from the sketch
    unsigned long m;
    // disable interrupts while we read timer_millis or we might get an
    // inconsistent value (e.g. in the middle of a write to timer_millis)
    uint8_t oldSREG = SREG;
     17e:	ef b7       	in	r30, 0x3f	; 63
/home/adam/.arduino15/packages/megaTinyCore/hardware/megaavr/2.6.11/cores/megatinycore/wiring.c:168
    cli();
     180:	f8 94       	cli
/home/adam/.arduino15/packages/megaTinyCore/hardware/megaavr/2.6.11/cores/megatinycore/wiring.c:182
        if (!(rtccount & 0x8000)) m += 64000;
      }
      SREG = oldSREG;
      m += rtccount - (rtccount >> 5) + (rtccount >> 7);
    #else
      m = timingStruct.timer_millis;
     182:	80 91 d5 3e 	lds	r24, 0x3ED5	; 0x803ed5 <timingStruct+0x4>
     186:	90 91 d6 3e 	lds	r25, 0x3ED6	; 0x803ed6 <timingStruct+0x5>
     18a:	a0 91 d7 3e 	lds	r26, 0x3ED7	; 0x803ed7 <timingStruct+0x6>
     18e:	b0 91 d8 3e 	lds	r27, 0x3ED8	; 0x803ed8 <timingStruct+0x7>
/home/adam/.arduino15/packages/megaTinyCore/hardware/megaavr/2.6.11/cores/megatinycore/wiring.c:183
      SREG = oldSREG;
     192:	ef bf       	out	0x3f, r30	; 63
delay.part.0():
/home/adam/.arduino15/packages/megaTinyCore/hardware/megaavr/2.6.11/cores/megatinycore/wiring.c:252
      while(ms--) {
        _delay_ms(1);
      }
    } else {
      uint32_t start = millis();
      while (millis() - start < ms);
     194:	80 1b       	sub	r24, r16
     196:	91 0b       	sbc	r25, r17
     198:	a2 0b       	sbc	r26, r18
     19a:	b3 0b       	sbc	r27, r19
     19c:	84 17       	cp	r24, r20
     19e:	95 07       	cpc	r25, r21
     1a0:	a6 07       	cpc	r26, r22
     1a2:	b7 07       	cpc	r27, r23
     1a4:	60 f3       	brcs	.-40     	; 0x17e <delay.part.0+0x1e>
/home/adam/.arduino15/packages/megaTinyCore/hardware/megaavr/2.6.11/cores/megatinycore/wiring.c:254
    }
  }
     1a6:	1f 91       	pop	r17
     1a8:	0f 91       	pop	r16
     1aa:	08 95       	ret

000001ac <micros>:
micros():
/home/adam/.arduino15/packages/megaTinyCore/hardware/megaavr/2.6.11/cores/megatinycore/wiring_micros_ISR.h:403
}



#if !(defined(MILLIS_USE_TIMERNONE) || defined(MILLIS_USE_TIMERRTC))
  unsigned long micros() {
     1ac:	cf 92       	push	r12
     1ae:	df 92       	push	r13
     1b0:	ef 92       	push	r14
     1b2:	ff 92       	push	r15
/home/adam/.arduino15/packages/megaTinyCore/hardware/megaavr/2.6.11/cores/megatinycore/wiring_micros_ISR.h:412
    #else /* TCA */
      uint8_t ticks;
    #endif
    uint8_t flags;
    /* Save current state and disable interrupts */
    uint8_t oldSREG = SREG;
     1b4:	9f b7       	in	r25, 0x3f	; 63
/home/adam/.arduino15/packages/megaTinyCore/hardware/megaavr/2.6.11/cores/megatinycore/wiring_micros_ISR.h:413
    cli(); /* INTERRUPTS OFF */
     1b6:	f8 94       	cli
/home/adam/.arduino15/packages/megaTinyCore/hardware/megaavr/2.6.11/cores/megatinycore/wiring_micros_ISR.h:421
      flags = _timer->INTFLAGS;
    #elif defined(MILLIS_USE_TIMERA0)
      ticks = TCA0.SPLIT.HCNT;
      flags = TCA0.SPLIT.INTFLAGS;
    #elif defined(MILLIS_USE_TIMERD0)
      TCD0.CTRLE = TCD_SCAPTUREA_bm;
     1b8:	88 e0       	ldi	r24, 0x08	; 8
     1ba:	80 93 84 0a 	sts	0x0A84, r24	; 0x800a84 <digital_pin_to_bit_mask+0x7f6aac>
/home/adam/.arduino15/packages/megaTinyCore/hardware/megaavr/2.6.11/cores/megatinycore/wiring_micros_ISR.h:422
      while (!(TCD0.STATUS & TCD_CMDRDY_bm)); // wait for sync - should be only one iteration of this loop
     1be:	80 91 8e 0a 	lds	r24, 0x0A8E	; 0x800a8e <digital_pin_to_bit_mask+0x7f6ab6>
     1c2:	81 ff       	sbrs	r24, 1
     1c4:	fc cf       	rjmp	.-8      	; 0x1be <micros+0x12>
/home/adam/.arduino15/packages/megaTinyCore/hardware/megaavr/2.6.11/cores/megatinycore/wiring_micros_ISR.h:423
      flags = TCD0.INTFLAGS;
     1c6:	80 91 8d 0a 	lds	r24, 0x0A8D	; 0x800a8d <digital_pin_to_bit_mask+0x7f6ab5>
/home/adam/.arduino15/packages/megaTinyCore/hardware/megaavr/2.6.11/cores/megatinycore/wiring_micros_ISR.h:424
      ticks = TCD0.CAPTUREA;
     1ca:	e0 91 a2 0a 	lds	r30, 0x0AA2	; 0x800aa2 <digital_pin_to_bit_mask+0x7f6aca>
     1ce:	f0 91 a3 0a 	lds	r31, 0x0AA3	; 0x800aa3 <digital_pin_to_bit_mask+0x7f6acb>
/home/adam/.arduino15/packages/megaTinyCore/hardware/megaavr/2.6.11/cores/megatinycore/wiring_micros_ISR.h:434
     * ISR has not fired. If we already read a high value of ticks, either we read it just before the overflow,
     * so we shouldn't increment overflows, or interrupts are disabled and micros isn't expected to work so it
     * doesn't matter.
     * Get current number of overflows and timer count */
    #if (MILLIS_TYPE != MILLIS_TCB)
      overflows = timingStruct.timer_overflow_count;
     1d2:	c0 90 d1 3e 	lds	r12, 0x3ED1	; 0x803ed1 <timingStruct>
     1d6:	d0 90 d2 3e 	lds	r13, 0x3ED2	; 0x803ed2 <timingStruct+0x1>
     1da:	e0 90 d3 3e 	lds	r14, 0x3ED3	; 0x803ed3 <timingStruct+0x2>
     1de:	f0 90 d4 3e 	lds	r15, 0x3ED4	; 0x803ed4 <timingStruct+0x3>
/home/adam/.arduino15/packages/megaTinyCore/hardware/megaavr/2.6.11/cores/megatinycore/wiring_micros_ISR.h:439
    #else
      overflows = timingStruct.timer_millis;
    #endif
    /* Turn interrupts back on, assuming they were on when micros was called. */
    SREG = oldSREG; /* INTERRUPTS ON */
     1e2:	9f bf       	out	0x3f, r25	; 63
/home/adam/.arduino15/packages/megaTinyCore/hardware/megaavr/2.6.11/cores/megatinycore/wiring_micros_ISR.h:441
    #if defined(MILLIS_USE_TIMERD0)
      if ((flags & TCD_OVF_bm) && (ticks < 0x07)) {
     1e4:	80 ff       	sbrs	r24, 0
     1e6:	08 c0       	rjmp	.+16     	; 0x1f8 <micros+0x4c>
     1e8:	e7 30       	cpi	r30, 0x07	; 7
     1ea:	f1 05       	cpc	r31, r1
     1ec:	28 f4       	brcc	.+10     	; 0x1f8 <micros+0x4c>
/home/adam/.arduino15/packages/megaTinyCore/hardware/megaavr/2.6.11/cores/megatinycore/wiring_micros_ISR.h:451
      if ((flags & TCB_CAPT_bm) && !(ticks & 0xFF00)) {
    #endif
    #if (MILLIS_TYPE == MILLIS_TCB) && !(F_CPU > 2000000UL)
      overflows +=2;
    #else
      overflows++;
     1ee:	8f ef       	ldi	r24, 0xFF	; 255
     1f0:	c8 1a       	sub	r12, r24
     1f2:	d8 0a       	sbc	r13, r24
     1f4:	e8 0a       	sbc	r14, r24
     1f6:	f8 0a       	sbc	r15, r24
/home/adam/.arduino15/packages/megaTinyCore/hardware/megaavr/2.6.11/cores/megatinycore/wiring_micros_ISR.h:457
    #endif
      } // end getting ticks

    #if defined(MILLIS_USE_TIMERD0)
      #if (F_CPU == 20000000UL || F_CPU == 10000000UL || F_CPU == 5000000UL)
        uint8_t ticks_l = ticks >> 1;
     1f8:	9f 01       	movw	r18, r30
     1fa:	36 95       	lsr	r19
     1fc:	27 95       	ror	r18
/home/adam/.arduino15/packages/megaTinyCore/hardware/megaavr/2.6.11/cores/megatinycore/wiring_micros_ISR.h:458
        ticks = ticks + ticks_l + ((ticks_l >> 2) - (ticks_l >> 4) + (ticks_l >> 7));
     1fe:	cf 01       	movw	r24, r30
     200:	82 0f       	add	r24, r18
     202:	91 1d       	adc	r25, r1
     204:	e2 2f       	mov	r30, r18
     206:	e6 95       	lsr	r30
     208:	e6 95       	lsr	r30
     20a:	32 2f       	mov	r19, r18
     20c:	32 95       	swap	r19
     20e:	3f 70       	andi	r19, 0x0F	; 15
     210:	e3 1b       	sub	r30, r19
     212:	ff 0b       	sbc	r31, r31
     214:	27 fd       	sbrc	r18, 7
     216:	31 96       	adiw	r30, 0x01	; 1
     218:	e8 0f       	add	r30, r24
     21a:	f9 1f       	adc	r31, r25
/home/adam/.arduino15/packages/megaTinyCore/hardware/megaavr/2.6.11/cores/megatinycore/wiring_micros_ISR.h:462
        // + ticks +(ticks>>1)+(ticks>>3)-(ticks>>5)+(ticks>>8))
        // speed optimization via doing math with smaller datatypes, since we know high byte is 1 or 0.
        //microseconds =   overflows * (TIME_TRACKING_CYCLES_PER_OVF / 20) + ticks; // ticks value corrected above. *FIVE HUNDRED AND TEN DOES NOT EVENLY DIVIDE BY 20!* What the fuck?
        microseconds =   overflows * (TIME_TRACKING_CYCLES_PER_OVF / 20) + ticks + (overflows >> 1);
     21c:	a0 e3       	ldi	r26, 0x30	; 48
     21e:	b3 e0       	ldi	r27, 0x03	; 3
     220:	a7 01       	movw	r20, r14
     222:	96 01       	movw	r18, r12
     224:	9d de       	rcall	.-710    	; 0xffffff60 <__eeprom_end+0xff7eff60>
     226:	f6 94       	lsr	r15
     228:	e7 94       	ror	r14
     22a:	d7 94       	ror	r13
     22c:	c7 94       	ror	r12
     22e:	c6 0e       	add	r12, r22
     230:	d7 1e       	adc	r13, r23
     232:	e8 1e       	adc	r14, r24
     234:	f9 1e       	adc	r15, r25
     236:	c7 01       	movw	r24, r14
     238:	b6 01       	movw	r22, r12
     23a:	6e 0f       	add	r22, r30
     23c:	7f 1f       	adc	r23, r31
     23e:	81 1d       	adc	r24, r1
     240:	91 1d       	adc	r25, r1
/home/adam/.arduino15/packages/megaTinyCore/hardware/megaavr/2.6.11/cores/megatinycore/wiring_micros_ISR.h:800
        microseconds = ((overflows * millisClockCyclesToMicroseconds(TIME_TRACKING_CYCLES_PER_OVF))
                      + (ticks * (millisClockCyclesToMicroseconds(TIME_TRACKING_CYCLES_PER_OVF) / TIME_TRACKING_TIMER_PERIOD)));
      #endif
    #endif // end of timer-specific part of micros calculations
    return microseconds;
  }
     242:	ff 90       	pop	r15
     244:	ef 90       	pop	r14
     246:	df 90       	pop	r13
     248:	cf 90       	pop	r12
     24a:	08 95       	ret

0000024c <tinyNeoPixel::show() [clone .constprop.17]>:
_ZN12tinyNeoPixel4showEv.constprop.17():
/home/adam/.arduino15/packages/megaTinyCore/hardware/megaavr/2.6.11/libraries/tinyNeoPixel_Static/tinyNeoPixel_Static.cpp:79
  latchTime = (us < 6 ? 6 : us); // there are no devices in production with a shorter latch waiting time, and thus is the shortest reasonable latch delay.
}
// *INDENT-OFF*   astyle don't like assembly
#if (PROGMEM_SIZE > 4096UL)

void tinyNeoPixel::show(void) {
     24c:	0f 93       	push	r16
     24e:	1f 93       	push	r17
     250:	cf 93       	push	r28
     252:	df 93       	push	r29
     254:	cd b7       	in	r28, 0x3d	; 61
     256:	de b7       	in	r29, 0x3e	; 62
     258:	27 97       	sbiw	r28, 0x07	; 7
     25a:	cd bf       	out	0x3d, r28	; 61
     25c:	de bf       	out	0x3e, r29	; 62
show():
/home/adam/.arduino15/packages/megaTinyCore/hardware/megaavr/2.6.11/libraries/tinyNeoPixel_Static/tinyNeoPixel_Static.cpp:83
  show(0);
}
void tinyNeoPixel::show(uint16_t leds) {
  volatile uint16_t i = numBytes;;
     25e:	80 91 dd 3e 	lds	r24, 0x3EDD	; 0x803edd <ledStrip+0x2>
     262:	90 91 de 3e 	lds	r25, 0x3EDE	; 0x803ede <ledStrip+0x3>
     266:	89 83       	std	Y+1, r24	; 0x01
     268:	9a 83       	std	Y+2, r25	; 0x02
/home/adam/.arduino15/packages/megaTinyCore/hardware/megaavr/2.6.11/libraries/tinyNeoPixel_Static/tinyNeoPixel_Static.cpp:91
      i = leds + leds + leds;
    } else {
      i = leds << 2;
    }
  }
  if ((!pixels) || pin >= NUM_DIGITAL_PINS)  {
     26a:	80 91 e3 3e 	lds	r24, 0x3EE3	; 0x803ee3 <ledStrip+0x8>
     26e:	90 91 e4 3e 	lds	r25, 0x3EE4	; 0x803ee4 <ledStrip+0x9>
     272:	89 2b       	or	r24, r25
     274:	09 f4       	brne	.+2      	; 0x278 <tinyNeoPixel::show() [clone .constprop.17]+0x2c>
     276:	69 c0       	rjmp	.+210    	; 0x34a <_nextbyte20+0x30>
     278:	80 91 e1 3e 	lds	r24, 0x3EE1	; 0x803ee1 <ledStrip+0x6>
     27c:	8c 30       	cpi	r24, 0x0C	; 12
     27e:	0c f0       	brlt	.+2      	; 0x282 <tinyNeoPixel::show() [clone .constprop.17]+0x36>
     280:	64 c0       	rjmp	.+200    	; 0x34a <_nextbyte20+0x30>
canShow():
/home/adam/.arduino15/packages/megaTinyCore/hardware/megaavr/2.6.11/libraries/tinyNeoPixel_Static/tinyNeoPixel_Static.h:302
             function instead.
  */
  static uint32_t gamma32(uint32_t x);

  #if (defined(micros))
    inline bool canShow(void) { return (micros() - endTime) >= (uint32_t) latchTime; }
     282:	94 df       	rcall	.-216    	; 0x1ac <micros>
     284:	00 91 e9 3e 	lds	r16, 0x3EE9	; 0x803ee9 <ledStrip+0xe>
     288:	10 91 ea 3e 	lds	r17, 0x3EEA	; 0x803eea <ledStrip+0xf>
     28c:	20 91 eb 3e 	lds	r18, 0x3EEB	; 0x803eeb <ledStrip+0x10>
     290:	30 91 ec 3e 	lds	r19, 0x3EEC	; 0x803eec <ledStrip+0x11>
     294:	ab 01       	movw	r20, r22
     296:	bc 01       	movw	r22, r24
     298:	40 1b       	sub	r20, r16
     29a:	51 0b       	sbc	r21, r17
     29c:	62 0b       	sbc	r22, r18
     29e:	73 0b       	sbc	r23, r19
     2a0:	80 91 df 3e 	lds	r24, 0x3EDF	; 0x803edf <ledStrip+0x4>
     2a4:	90 91 e0 3e 	lds	r25, 0x3EE0	; 0x803ee0 <ledStrip+0x5>
     2a8:	b0 e0       	ldi	r27, 0x00	; 0
     2aa:	a0 e0       	ldi	r26, 0x00	; 0
show():
/home/adam/.arduino15/packages/megaTinyCore/hardware/megaavr/2.6.11/libraries/tinyNeoPixel_Static/tinyNeoPixel_Static.cpp:104
  // put a delay at the end of the function, the ending time is noted and
  // the function will simply hold off (if needed) on issuing the
  // subsequent round of data until the latch time has elapsed.  This
  // allows the mainline code to start generating the next frame of data
  // rather than stalling for the latch.
  while (!canShow());
     2ac:	48 17       	cp	r20, r24
     2ae:	59 07       	cpc	r21, r25
     2b0:	6a 07       	cpc	r22, r26
     2b2:	7b 07       	cpc	r23, r27
     2b4:	30 f3       	brcs	.-52     	; 0x282 <tinyNeoPixel::show() [clone .constprop.17]+0x36>
/home/adam/.arduino15/packages/megaTinyCore/hardware/megaavr/2.6.11/libraries/tinyNeoPixel_Static/tinyNeoPixel_Static.cpp:155
  //   * b (bit number for speeds that don't have to unroll the loop)
  //     is given constraint "+r", which can assign it to any register.
  //     But the code uses LDI on it. LDI doesn't work on every register,
  //     it must have the "+d" constraint to guarantee an upper register.

  noInterrupts(); // Need 100% focus on instruction timing
     2b6:	f8 94       	cli
/home/adam/.arduino15/packages/megaTinyCore/hardware/megaavr/2.6.11/libraries/tinyNeoPixel_Static/tinyNeoPixel_Static.cpp:166
  // run at those speeds, only that - if they do - you can control WS2812s
  // with them.


  volatile uint8_t
   *ptr = pixels,   // Pointer to next byte
     2b8:	a0 91 e3 3e 	lds	r26, 0x3EE3	; 0x803ee3 <ledStrip+0x8>
     2bc:	b0 91 e4 3e 	lds	r27, 0x3EE4	; 0x803ee4 <ledStrip+0x9>
/home/adam/.arduino15/packages/megaTinyCore/hardware/megaavr/2.6.11/libraries/tinyNeoPixel_Static/tinyNeoPixel_Static.cpp:167
    b   = *ptr++,   // Current byte value
     2c0:	fd 01       	movw	r30, r26
     2c2:	31 96       	adiw	r30, 0x01	; 1
     2c4:	8c 91       	ld	r24, X
     2c6:	8f 83       	std	Y+7, r24	; 0x07
/home/adam/.arduino15/packages/megaTinyCore/hardware/megaavr/2.6.11/libraries/tinyNeoPixel_Static/tinyNeoPixel_Static.cpp:690
    // 25 inst. clocks per bit: HHHHHHHxxxxxxxLLLLLLLLLLL      H:7 x:7 L11
    // ST instructions:         ^      ^      ^       (T=0,7,14)

    volatile uint8_t next, bit;

    hi   = *port |  pinMask;
     2c8:	a0 91 ed 3e 	lds	r26, 0x3EED	; 0x803eed <ledStrip+0x12>
     2cc:	b0 91 ee 3e 	lds	r27, 0x3EEE	; 0x803eee <ledStrip+0x13>
     2d0:	9c 91       	ld	r25, X
     2d2:	80 91 ef 3e 	lds	r24, 0x3EEF	; 0x803eef <ledStrip+0x14>
     2d6:	98 2b       	or	r25, r24
     2d8:	9e 83       	std	Y+6, r25	; 0x06
/home/adam/.arduino15/packages/megaTinyCore/hardware/megaavr/2.6.11/libraries/tinyNeoPixel_Static/tinyNeoPixel_Static.cpp:691
    lo   = *port & ~pinMask;
     2da:	9c 91       	ld	r25, X
     2dc:	80 95       	com	r24
     2de:	89 23       	and	r24, r25
     2e0:	8d 83       	std	Y+5, r24	; 0x05
/home/adam/.arduino15/packages/megaTinyCore/hardware/megaavr/2.6.11/libraries/tinyNeoPixel_Static/tinyNeoPixel_Static.cpp:692
    next = lo;
     2e2:	8d 81       	ldd	r24, Y+5	; 0x05
     2e4:	8c 83       	std	Y+4, r24	; 0x04
/home/adam/.arduino15/packages/megaTinyCore/hardware/megaavr/2.6.11/libraries/tinyNeoPixel_Static/tinyNeoPixel_Static.cpp:693
    bit  = 8;
     2e6:	88 e0       	ldi	r24, 0x08	; 8
     2e8:	8b 83       	std	Y+3, r24	; 0x03
/home/adam/.arduino15/packages/megaTinyCore/hardware/megaavr/2.6.11/libraries/tinyNeoPixel_Static/tinyNeoPixel_Static.cpp:732
      [bit]   "+d" (bit),
      [next]  "+r" (next),
      [count] "+w" (i)
    : [port]   "e" (port),
      [hi]     "r" (hi),
      [lo]     "r" (lo));
     2ea:	5e 81       	ldd	r21, Y+6	; 0x06
     2ec:	6d 81       	ldd	r22, Y+5	; 0x05
     2ee:	4f 81       	ldd	r20, Y+7	; 0x07
     2f0:	3b 81       	ldd	r19, Y+3	; 0x03
     2f2:	2c 81       	ldd	r18, Y+4	; 0x04
     2f4:	89 81       	ldd	r24, Y+1	; 0x01
     2f6:	9a 81       	ldd	r25, Y+2	; 0x02

000002f8 <_head20>:
     2f8:	5c 93       	st	X, r21
     2fa:	47 fd       	sbrc	r20, 7
     2fc:	25 2f       	mov	r18, r21
     2fe:	3a 95       	dec	r19
     300:	00 00       	nop
     302:	00 c0       	rjmp	.+0      	; 0x304 <_head20+0xc>
     304:	2c 93       	st	X, r18
     306:	26 2f       	mov	r18, r22
     308:	41 f0       	breq	.+16     	; 0x31a <_nextbyte20>
     30a:	44 1f       	adc	r20, r20
     30c:	00 c0       	rjmp	.+0      	; 0x30e <_head20+0x16>
     30e:	00 00       	nop
     310:	6c 93       	st	X, r22
     312:	01 d0       	rcall	.+2      	; 0x316 <_onlydelay20>
     314:	f1 cf       	rjmp	.-30     	; 0x2f8 <_head20>

00000316 <_onlydelay20>:
     316:	00 c0       	rjmp	.+0      	; 0x318 <_onlydelay20+0x2>
     318:	08 95       	ret

0000031a <_nextbyte20>:
     31a:	38 e0       	ldi	r19, 0x08	; 8
     31c:	41 91       	ld	r20, Z+
     31e:	00 00       	nop
     320:	6c 93       	st	X, r22
     322:	00 00       	nop
     324:	00 c0       	rjmp	.+0      	; 0x326 <_nextbyte20+0xc>
     326:	00 c0       	rjmp	.+0      	; 0x328 <_nextbyte20+0xe>
     328:	01 97       	sbiw	r24, 0x01	; 1
     32a:	31 f7       	brne	.-52     	; 0x2f8 <_head20>
     32c:	4f 83       	std	Y+7, r20	; 0x07
     32e:	3b 83       	std	Y+3, r19	; 0x03
     330:	2c 83       	std	Y+4, r18	; 0x04
     332:	89 83       	std	Y+1, r24	; 0x01
     334:	9a 83       	std	Y+2, r25	; 0x02
/home/adam/.arduino15/packages/megaTinyCore/hardware/megaavr/2.6.11/libraries/tinyNeoPixel_Static/tinyNeoPixel_Static.cpp:1072
    #error "CPU SPEED NOT SUPPORTED"
  #endif



  interrupts();
     336:	78 94       	sei
/home/adam/.arduino15/packages/megaTinyCore/hardware/megaavr/2.6.11/libraries/tinyNeoPixel_Static/tinyNeoPixel_Static.cpp:1074
  #if (defined(micros))
    endTime = micros();
     338:	39 df       	rcall	.-398    	; 0x1ac <micros>
     33a:	60 93 e9 3e 	sts	0x3EE9, r22	; 0x803ee9 <ledStrip+0xe>
     33e:	70 93 ea 3e 	sts	0x3EEA, r23	; 0x803eea <ledStrip+0xf>
     342:	80 93 eb 3e 	sts	0x3EEB, r24	; 0x803eeb <ledStrip+0x10>
     346:	90 93 ec 3e 	sts	0x3EEC, r25	; 0x803eec <ledStrip+0x11>
_ZN12tinyNeoPixel4showEv.constprop.17():
/home/adam/.arduino15/packages/megaTinyCore/hardware/megaavr/2.6.11/libraries/tinyNeoPixel_Static/tinyNeoPixel_Static.cpp:81
// *INDENT-OFF*   astyle don't like assembly
#if (PROGMEM_SIZE > 4096UL)

void tinyNeoPixel::show(void) {
  show(0);
}
     34a:	27 96       	adiw	r28, 0x07	; 7
     34c:	cd bf       	out	0x3d, r28	; 61
     34e:	de bf       	out	0x3e, r29	; 62
     350:	df 91       	pop	r29
     352:	cf 91       	pop	r28
     354:	1f 91       	pop	r17
     356:	0f 91       	pop	r16
     358:	08 95       	ret

0000035a <ptc_start_conversion>:
ptc_start_conversion():
/home/adam/.arduino15/packages/megaTinyCore/hardware/megaavr/2.6.11/libraries/PTC/src/ptc.c:945
    ptc_start_conversion(firstNode);
  }
  #endif
}

void ptc_start_conversion(cap_sensor_t *node) {
     35a:	cf 93       	push	r28
     35c:	df 93       	push	r29
     35e:	fc 01       	movw	r30, r24
/home/adam/.arduino15/packages/megaTinyCore/hardware/megaavr/2.6.11/libraries/PTC/src/ptc.c:952
    if (NULL == node) {
      PTC.INTCTRL = 0;    // disable ISR for ADC reuse
      ptc_lib_state = PTC_LIB_CONV_COMPL;
      return;
    }
    if ((0 == node->state.disabled) && (node->type == currConvType)) {
     360:	80 91 3d 3e 	lds	r24, 0x3E3D	; 0x803e3d <currConvType>
     364:	90 91 3e 3e 	lds	r25, 0x3E3E	; 0x803e3e <currConvType+0x1>
/home/adam/.arduino15/packages/megaTinyCore/hardware/megaavr/2.6.11/libraries/PTC/src/ptc.c:947
  #endif
}

void ptc_start_conversion(cap_sensor_t *node) {
  while (1) {
    if (NULL == node) {
     368:	30 97       	sbiw	r30, 0x00	; 0
     36a:	59 f4       	brne	.+22     	; 0x382 <ptc_start_conversion+0x28>
/home/adam/.arduino15/packages/megaTinyCore/hardware/megaavr/2.6.11/libraries/PTC/src/ptc.c:948
      PTC.INTCTRL = 0;    // disable ISR for ADC reuse
     36c:	10 92 0a 06 	sts	0x060A, r1	; 0x80060a <digital_pin_to_bit_mask+0x7f6632>
/home/adam/.arduino15/packages/megaTinyCore/hardware/megaavr/2.6.11/libraries/PTC/src/ptc.c:949
      ptc_lib_state = PTC_LIB_CONV_COMPL;
     370:	82 e0       	ldi	r24, 0x02	; 2
     372:	90 e0       	ldi	r25, 0x00	; 0
     374:	80 93 3f 3e 	sts	0x3E3F, r24	; 0x803e3f <ptc_lib_state>
     378:	90 93 40 3e 	sts	0x3E40, r25	; 0x803e40 <ptc_lib_state+0x1>
/home/adam/.arduino15/packages/megaTinyCore/hardware/megaavr/2.6.11/libraries/PTC/src/ptc.c:1036
  if (0 == node->state.low_power) {
    pPTC->COMMAND = 0x01; // Normal operation: Manual Start
  } else {
    pPTC->EVCTRL = 0x01;  // Low Power: Start by positive flank on event
  }
}
     37c:	df 91       	pop	r29
     37e:	cf 91       	pop	r28
     380:	08 95       	ret
/home/adam/.arduino15/packages/megaTinyCore/hardware/megaavr/2.6.11/libraries/PTC/src/ptc.c:952
    if (NULL == node) {
      PTC.INTCTRL = 0;    // disable ISR for ADC reuse
      ptc_lib_state = PTC_LIB_CONV_COMPL;
      return;
    }
    if ((0 == node->state.disabled) && (node->type == currConvType)) {
     382:	24 85       	ldd	r18, Z+12	; 0x0c
     384:	24 fd       	sbrc	r18, 4
     386:	05 c0       	rjmp	.+10     	; 0x392 <ptc_start_conversion+0x38>
     388:	22 81       	ldd	r18, Z+2	; 0x02
     38a:	33 81       	ldd	r19, Z+3	; 0x03
     38c:	28 17       	cp	r18, r24
     38e:	39 07       	cpc	r19, r25
     390:	21 f0       	breq	.+8      	; 0x39a <ptc_start_conversion+0x40>
/home/adam/.arduino15/packages/megaTinyCore/hardware/megaavr/2.6.11/libraries/PTC/src/ptc.c:955
      break;
    } else {
      node = node->nextNode;
     392:	01 90       	ld	r0, Z+
     394:	f0 81       	ld	r31, Z
     396:	e0 2d       	mov	r30, r0
     398:	e7 cf       	rjmp	.-50     	; 0x368 <ptc_start_conversion+0xe>
/home/adam/.arduino15/packages/megaTinyCore/hardware/megaavr/2.6.11/libraries/PTC/src/ptc.c:959
    }
  }

  currConvNode = node;
     39a:	e0 93 41 3e 	sts	0x3E41, r30	; 0x803e41 <currConvNode>
     39e:	f0 93 42 3e 	sts	0x3E42, r31	; 0x803e42 <currConvNode+0x1>
/home/adam/.arduino15/packages/megaTinyCore/hardware/megaavr/2.6.11/libraries/PTC/src/ptc.c:962

  PTC_t *pPTC;
  _fastPtr_d(pPTC, &PTC);
     3a2:	c0 e0       	ldi	r28, 0x00	; 0
     3a4:	d6 e0       	ldi	r29, 0x06	; 6
/home/adam/.arduino15/packages/megaTinyCore/hardware/megaavr/2.6.11/libraries/PTC/src/ptc.c:965
  _fastPtr_d(node, node);
  uint8_t analogGain = PTC_GAIN_MAX;
  if (node->stateMachine != PTC_SM_NOINIT_CAL) {
     3a6:	85 89       	ldd	r24, Z+21	; 0x15
/home/adam/.arduino15/packages/megaTinyCore/hardware/megaavr/2.6.11/libraries/PTC/src/ptc.c:964
  currConvNode = node;

  PTC_t *pPTC;
  _fastPtr_d(pPTC, &PTC);
  _fastPtr_d(node, node);
  uint8_t analogGain = PTC_GAIN_MAX;
     3a8:	9f e3       	ldi	r25, 0x3F	; 63
/home/adam/.arduino15/packages/megaTinyCore/hardware/megaavr/2.6.11/libraries/PTC/src/ptc.c:965
  if (node->stateMachine != PTC_SM_NOINIT_CAL) {
     3aa:	88 23       	and	r24, r24
     3ac:	19 f0       	breq	.+6      	; 0x3b4 <ptc_start_conversion+0x5a>
/home/adam/.arduino15/packages/megaTinyCore/hardware/megaavr/2.6.11/libraries/PTC/src/ptc.c:966
    analogGain = node->hw_gain_ovs / 16;  // A little workaround as >> 4 is kinda broken sometimes.
     3ae:	92 85       	ldd	r25, Z+10	; 0x0a
     3b0:	92 95       	swap	r25
     3b2:	9f 70       	andi	r25, 0x0F	; 15
/home/adam/.arduino15/packages/megaTinyCore/hardware/megaavr/2.6.11/libraries/PTC/src/ptc.c:969
  }

  uint8_t chargeDelay = node->hw_csd;
     3b4:	83 85       	ldd	r24, Z+11	; 0x0b
/home/adam/.arduino15/packages/megaTinyCore/hardware/megaavr/2.6.11/libraries/PTC/src/ptc.c:972

  #if defined(__PTC_Tiny__)
  pPTC->XBM  = node->hw_xCh_bm[0];
     3b6:	25 81       	ldd	r18, Z+5	; 0x05
     3b8:	30 e0       	ldi	r19, 0x00	; 0
     3ba:	2e a3       	std	Y+38, r18	; 0x26
     3bc:	3f a3       	std	Y+39, r19	; 0x27
/home/adam/.arduino15/packages/megaTinyCore/hardware/megaavr/2.6.11/libraries/PTC/src/ptc.c:973
  pPTC->YBM  = node->hw_yCh_bm[0];
     3be:	26 81       	ldd	r18, Z+6	; 0x06
     3c0:	30 e0       	ldi	r19, 0x00	; 0
     3c2:	2a a7       	std	Y+42, r18	; 0x2a
     3c4:	3b a7       	std	Y+43, r19	; 0x2b
/home/adam/.arduino15/packages/megaTinyCore/hardware/megaavr/2.6.11/libraries/PTC/src/ptc.c:975

  if (chargeDelay < 0x1B) {
     3c6:	8b 31       	cpi	r24, 0x1B	; 27
     3c8:	e8 f4       	brcc	.+58     	; 0x404 <__LOCK_REGION_LENGTH__+0x4>
/home/adam/.arduino15/packages/megaTinyCore/hardware/megaavr/2.6.11/libraries/PTC/src/ptc.c:976
    chargeDelay += 4;
     3ca:	8c 5f       	subi	r24, 0xFC	; 252
/home/adam/.arduino15/packages/megaTinyCore/hardware/megaavr/2.6.11/libraries/PTC/src/ptc.c:980
  } else {
    chargeDelay = 0x1F;
  }
  pPTC->SAMPCTRL = chargeDelay;
     3cc:	8d 83       	std	Y+5, r24	; 0x05
/home/adam/.arduino15/packages/megaTinyCore/hardware/megaavr/2.6.11/libraries/PTC/src/ptc.c:983


  pPTC->CTRLC = (node->hw_rsel_presc & 0x0F) | ADC_REFSEL_VDDREF_gc;
     3ce:	81 85       	ldd	r24, Z+9	; 0x09
     3d0:	28 2f       	mov	r18, r24
     3d2:	2f 70       	andi	r18, 0x0F	; 15
     3d4:	20 61       	ori	r18, 0x10	; 16
     3d6:	2a 83       	std	Y+2, r18	; 0x02
/home/adam/.arduino15/packages/megaTinyCore/hardware/megaavr/2.6.11/libraries/PTC/src/ptc.c:984
  pPTC->CTRLP |= 0x03;
     3d8:	28 8d       	ldd	r18, Y+24	; 0x18
     3da:	23 60       	ori	r18, 0x03	; 3
     3dc:	28 8f       	std	Y+24, r18	; 0x18
/home/adam/.arduino15/packages/megaTinyCore/hardware/megaavr/2.6.11/libraries/PTC/src/ptc.c:1024
  } else {
    pPTC->CTRL_SHIELD = 0;
  }
  #endif

  pPTC->COMP = node->hw_compCaps;
     3de:	27 81       	ldd	r18, Z+7	; 0x07
     3e0:	30 85       	ldd	r19, Z+8	; 0x08
     3e2:	2a 8f       	std	Y+26, r18	; 0x1a
     3e4:	3b 8f       	std	Y+27, r19	; 0x1b
/home/adam/.arduino15/packages/megaTinyCore/hardware/megaavr/2.6.11/libraries/PTC/src/ptc.c:1025
  pPTC->AGAIN = analogGain;
     3e6:	9c 8f       	std	Y+28, r25	; 0x1c
/home/adam/.arduino15/packages/megaTinyCore/hardware/megaavr/2.6.11/libraries/PTC/src/ptc.c:1026
  pPTC->CTRLB = node->hw_gain_ovs & 0x0F;
     3e8:	92 85       	ldd	r25, Z+10	; 0x0a
     3ea:	9f 70       	andi	r25, 0x0F	; 15
     3ec:	99 83       	std	Y+1, r25	; 0x01
/home/adam/.arduino15/packages/megaTinyCore/hardware/megaavr/2.6.11/libraries/PTC/src/ptc.c:1027
  pPTC->RSEL = node->hw_rsel_presc / 16;
     3ee:	82 95       	swap	r24
     3f0:	8f 70       	andi	r24, 0x0F	; 15
     3f2:	89 8f       	std	Y+25, r24	; 0x19
/home/adam/.arduino15/packages/megaTinyCore/hardware/megaavr/2.6.11/libraries/PTC/src/ptc.c:1029

  pPTC->CTRLA = ADC_RUNSTBY_bm | ADC_ENABLE_bm; /* 0x81 */
     3f4:	81 e8       	ldi	r24, 0x81	; 129
     3f6:	88 83       	st	Y, r24
/home/adam/.arduino15/packages/megaTinyCore/hardware/megaavr/2.6.11/libraries/PTC/src/ptc.c:1031

  if (0 == node->state.low_power) {
     3f8:	84 85       	ldd	r24, Z+12	; 0x0c
     3fa:	82 fd       	sbrc	r24, 2
     3fc:	05 c0       	rjmp	.+10     	; 0x408 <__LOCK_REGION_LENGTH__+0x8>
/home/adam/.arduino15/packages/megaTinyCore/hardware/megaavr/2.6.11/libraries/PTC/src/ptc.c:1032
    pPTC->COMMAND = 0x01; // Normal operation: Manual Start
     3fe:	81 e0       	ldi	r24, 0x01	; 1
     400:	88 87       	std	Y+8, r24	; 0x08
     402:	bc cf       	rjmp	.-136    	; 0x37c <ptc_start_conversion+0x22>
/home/adam/.arduino15/packages/megaTinyCore/hardware/megaavr/2.6.11/libraries/PTC/src/ptc.c:978
  pPTC->YBM  = node->hw_yCh_bm[0];

  if (chargeDelay < 0x1B) {
    chargeDelay += 4;
  } else {
    chargeDelay = 0x1F;
     404:	8f e1       	ldi	r24, 0x1F	; 31
     406:	e2 cf       	rjmp	.-60     	; 0x3cc <ptc_start_conversion+0x72>
/home/adam/.arduino15/packages/megaTinyCore/hardware/megaavr/2.6.11/libraries/PTC/src/ptc.c:1034
  pPTC->CTRLA = ADC_RUNSTBY_bm | ADC_ENABLE_bm; /* 0x81 */

  if (0 == node->state.low_power) {
    pPTC->COMMAND = 0x01; // Normal operation: Manual Start
  } else {
    pPTC->EVCTRL = 0x01;  // Low Power: Start by positive flank on event
     408:	81 e0       	ldi	r24, 0x01	; 1
     40a:	89 87       	std	Y+9, r24	; 0x09
     40c:	b7 cf       	rjmp	.-146    	; 0x37c <ptc_start_conversion+0x22>

0000040e <ptc_process_measurement>:
ptc_process_measurement():
/home/adam/.arduino15/packages/megaTinyCore/hardware/megaavr/2.6.11/libraries/PTC/src/ptc.c:536


/*
 * Internal functions only below. Not part of the API
 */
void ptc_process_measurement(cap_sensor_t *node) {
     40e:	1f 93       	push	r17
     410:	cf 93       	push	r28
     412:	df 93       	push	r29
     414:	fc 01       	movw	r30, r24
/home/adam/.arduino15/packages/megaTinyCore/hardware/megaavr/2.6.11/libraries/PTC/src/ptc.c:537
  if (node->state.error) {
     416:	84 85       	ldd	r24, Z+12	; 0x0c
     418:	80 fd       	sbrc	r24, 0
     41a:	9e c0       	rjmp	.+316    	; 0x558 <ptc_process_measurement+0x14a>
/home/adam/.arduino15/packages/megaTinyCore/hardware/megaavr/2.6.11/libraries/PTC/src/ptc.c:541
    return;
  }

  if (node->state.data_ready != 0) {
     41c:	83 ff       	sbrs	r24, 3
     41e:	9c c0       	rjmp	.+312    	; 0x558 <ptc_process_measurement+0x14a>
/home/adam/.arduino15/packages/megaTinyCore/hardware/megaavr/2.6.11/libraries/PTC/src/ptc.c:542
    node->state.data_ready = 0;
     420:	87 7f       	andi	r24, 0xF7	; 247
     422:	84 87       	std	Z+12, r24	; 0x0c
ptc_process_node_sm():
/home/adam/.arduino15/packages/megaTinyCore/hardware/megaavr/2.6.11/libraries/PTC/src/ptc.c:551
}



void ptc_process_node_sm(cap_sensor_t *node) {
  uint16_t nodeData   = node->sensorData;
     424:	c5 85       	ldd	r28, Z+13	; 0x0d
     426:	d6 85       	ldd	r29, Z+14	; 0x0e
/home/adam/.arduino15/packages/megaTinyCore/hardware/megaavr/2.6.11/libraries/PTC/src/ptc.c:552
  uint8_t  nodeSM     = node->stateMachine;
     428:	95 89       	ldd	r25, Z+21	; 0x15
/home/adam/.arduino15/packages/megaTinyCore/hardware/megaavr/2.6.11/libraries/PTC/src/ptc.c:553
  uint8_t  lastChange = node->lastStateChange;
     42a:	76 89       	ldd	r23, Z+22	; 0x16
/home/adam/.arduino15/packages/megaTinyCore/hardware/megaavr/2.6.11/libraries/PTC/src/ptc.c:557
  uint16_t reference  = node->reference;
  int16_t  nodeDelta  = nodeData - reference;

  if (nodeSM == PTC_SM_NOINIT_CAL) {         /* Beginning here */
     42c:	91 11       	cpse	r25, r1
     42e:	98 c0       	rjmp	.+304    	; 0x560 <ptc_process_measurement+0x152>
ptc_process_calibrate():
/home/adam/.arduino15/packages/megaTinyCore/hardware/megaavr/2.6.11/libraries/PTC/src/ptc.c:688

uint8_t ptc_process_calibrate(cap_sensor_t *node) {
  uint16_t rawData = node->sensorData;

  #if defined(__PTC_Tiny__)
  uint16_t compensation = node->hw_compCaps;
     430:	17 81       	ldd	r17, Z+7	; 0x07
     432:	30 85       	ldd	r19, Z+8	; 0x08
/home/adam/.arduino15/packages/megaTinyCore/hardware/megaavr/2.6.11/libraries/PTC/src/ptc.c:692
  uint8_t cc_accurate =             compensation        & 0x0F;
  uint8_t cc_fine = ((uint8_t) compensation >> 4)  & 0x0F;
  uint8_t cc_coarse = (uint8_t)(compensation >> 8)  & 0x0F;
  uint8_t cc_add_rough = (uint8_t)(compensation >> 8)  & 0xC0;
     434:	63 2f       	mov	r22, r19
     436:	60 7c       	andi	r22, 0xC0	; 192
/home/adam/.arduino15/packages/megaTinyCore/hardware/megaavr/2.6.11/libraries/PTC/src/ptc.c:699

  //uint8_t err = 0;

  int8_t dirOvf;
  int8_t dir;
  if (rawData > 0x01FF) {
     438:	c1 15       	cp	r28, r1
     43a:	22 e0       	ldi	r18, 0x02	; 2
     43c:	d2 07       	cpc	r29, r18
     43e:	18 f1       	brcs	.+70     	; 0x486 <ptc_process_measurement+0x78>
/home/adam/.arduino15/packages/megaTinyCore/hardware/megaavr/2.6.11/libraries/PTC/src/ptc.c:700
    rawData = rawData - 0x1FF;
     440:	ce 01       	movw	r24, r28
     442:	8f 5f       	subi	r24, 0xFF	; 255
     444:	91 40       	sbci	r25, 0x01	; 1
/home/adam/.arduino15/packages/megaTinyCore/hardware/megaavr/2.6.11/libraries/PTC/src/ptc.c:701
    if (rawData < 4) {
     446:	84 30       	cpi	r24, 0x04	; 4
     448:	91 05       	cpc	r25, r1
     44a:	08 f4       	brcc	.+2      	; 0x44e <ptc_process_measurement+0x40>
     44c:	79 c0       	rjmp	.+242    	; 0x540 <ptc_process_measurement+0x132>
/home/adam/.arduino15/packages/megaTinyCore/hardware/megaavr/2.6.11/libraries/PTC/src/ptc.c:705
      return PTC_LIB_CALIB_DONE;
    }

    if (node->type & NODE_MUTUAL_bm) {
     44e:	22 81       	ldd	r18, Z+2	; 0x02
     450:	20 ff       	sbrs	r18, 0
     452:	05 c0       	rjmp	.+10     	; 0x45e <ptc_process_measurement+0x50>
/home/adam/.arduino15/packages/megaTinyCore/hardware/megaavr/2.6.11/libraries/PTC/src/ptc.c:708
      dir = -1;
      dirOvf = -6;
      rawData /= 2;
     454:	96 95       	lsr	r25
     456:	87 95       	ror	r24
ptc_process_measurement():
/home/adam/.arduino15/packages/megaTinyCore/hardware/megaavr/2.6.11/libraries/PTC/src/ptc.c:730
    if (node->type & NODE_MUTUAL_bm) {
      dir = 1;
      dirOvf = 6;
      rawData /= 2;
    } else {
      dir = -1;
     458:	5f ef       	ldi	r21, 0xFF	; 255
/home/adam/.arduino15/packages/megaTinyCore/hardware/megaavr/2.6.11/libraries/PTC/src/ptc.c:731
      dirOvf = -6;
     45a:	ba ef       	ldi	r27, 0xFA	; 250
     45c:	0a c0       	rjmp	.+20     	; 0x472 <ptc_process_measurement+0x64>
ptc_process_calibrate():
/home/adam/.arduino15/packages/megaTinyCore/hardware/megaavr/2.6.11/libraries/PTC/src/ptc.c:712
      dirOvf = -6;
      rawData /= 2;
    } else {
      dir = 1;
      dirOvf = 6;
      if (rawData > 0x0100) {
     45e:	81 30       	cpi	r24, 0x01	; 1
     460:	21 e0       	ldi	r18, 0x01	; 1
     462:	92 07       	cpc	r25, r18
     464:	20 f0       	brcs	.+8      	; 0x46e <ptc_process_measurement+0x60>
/home/adam/.arduino15/packages/megaTinyCore/hardware/megaavr/2.6.11/libraries/PTC/src/ptc.c:714
        if (cc_add_rough <= 0xC0) {
          cc_add_rough = (cc_add_rough + 0x40);
     466:	60 5c       	subi	r22, 0xC0	; 192
/home/adam/.arduino15/packages/megaTinyCore/hardware/megaavr/2.6.11/libraries/PTC/src/ptc.c:715
          rawData -= 0xF0;
     468:	ce 01       	movw	r24, r28
     46a:	8f 5e       	subi	r24, 0xEF	; 239
     46c:	92 40       	sbci	r25, 0x02	; 2
ptc_process_measurement():
/home/adam/.arduino15/packages/megaTinyCore/hardware/megaavr/2.6.11/libraries/PTC/src/ptc.c:710
    if (node->type & NODE_MUTUAL_bm) {
      dir = -1;
      dirOvf = -6;
      rawData /= 2;
    } else {
      dir = 1;
     46e:	51 e0       	ldi	r21, 0x01	; 1
/home/adam/.arduino15/packages/megaTinyCore/hardware/megaavr/2.6.11/libraries/PTC/src/ptc.c:711
      dirOvf = 6;
     470:	b6 e0       	ldi	r27, 0x06	; 6
ptc_process_calibrate():
/home/adam/.arduino15/packages/megaTinyCore/hardware/megaavr/2.6.11/libraries/PTC/src/ptc.c:690
  uint16_t rawData = node->sensorData;

  #if defined(__PTC_Tiny__)
  uint16_t compensation = node->hw_compCaps;
  uint8_t cc_accurate =             compensation        & 0x0F;
  uint8_t cc_fine = ((uint8_t) compensation >> 4)  & 0x0F;
     472:	a1 2f       	mov	r26, r17
     474:	a2 95       	swap	r26
     476:	af 70       	andi	r26, 0x0F	; 15
/home/adam/.arduino15/packages/megaTinyCore/hardware/megaavr/2.6.11/libraries/PTC/src/ptc.c:691
  uint8_t cc_coarse = (uint8_t)(compensation >> 8)  & 0x0F;
     478:	43 2f       	mov	r20, r19
     47a:	4f 70       	andi	r20, 0x0F	; 15
/home/adam/.arduino15/packages/megaTinyCore/hardware/megaavr/2.6.11/libraries/PTC/src/ptc.c:693
  uint8_t cc_add_rough = (uint8_t)(compensation >> 8)  & 0xC0;
  uint8_t cc_rough  = (uint8_t)(compensation >> 12) & 0x03;
     47c:	32 95       	swap	r19
     47e:	3f 70       	andi	r19, 0x0F	; 15
     480:	23 2f       	mov	r18, r19
     482:	23 70       	andi	r18, 0x03	; 3
     484:	3a c0       	rjmp	.+116    	; 0x4fa <ptc_process_measurement+0xec>
/home/adam/.arduino15/packages/megaTinyCore/hardware/megaavr/2.6.11/libraries/PTC/src/ptc.c:720
          rawData -= 0xF0;
        }
      }
    }
  } else {
    rawData = 0x1FF - rawData;
     486:	8f ef       	ldi	r24, 0xFF	; 255
     488:	91 e0       	ldi	r25, 0x01	; 1
     48a:	8c 1b       	sub	r24, r28
     48c:	9d 0b       	sbc	r25, r29
/home/adam/.arduino15/packages/megaTinyCore/hardware/megaavr/2.6.11/libraries/PTC/src/ptc.c:721
    if (rawData < 4) {
     48e:	84 30       	cpi	r24, 0x04	; 4
     490:	91 05       	cpc	r25, r1
     492:	08 f4       	brcc	.+2      	; 0x496 <ptc_process_measurement+0x88>
     494:	55 c0       	rjmp	.+170    	; 0x540 <ptc_process_measurement+0x132>
/home/adam/.arduino15/packages/megaTinyCore/hardware/megaavr/2.6.11/libraries/PTC/src/ptc.c:725
      return PTC_LIB_CALIB_DONE;
    }

    if (node->type & NODE_MUTUAL_bm) {
     496:	22 81       	ldd	r18, Z+2	; 0x02
     498:	20 ff       	sbrs	r18, 0
     49a:	03 c0       	rjmp	.+6      	; 0x4a2 <ptc_process_measurement+0x94>
/home/adam/.arduino15/packages/megaTinyCore/hardware/megaavr/2.6.11/libraries/PTC/src/ptc.c:728
      dir = 1;
      dirOvf = 6;
      rawData /= 2;
     49c:	96 95       	lsr	r25
     49e:	87 95       	ror	r24
     4a0:	e6 cf       	rjmp	.-52     	; 0x46e <ptc_process_measurement+0x60>
/home/adam/.arduino15/packages/megaTinyCore/hardware/megaavr/2.6.11/libraries/PTC/src/ptc.c:732
    } else {
      dir = -1;
      dirOvf = -6;
      if (rawData > 0x0100) {
     4a2:	81 30       	cpi	r24, 0x01	; 1
     4a4:	21 e0       	ldi	r18, 0x01	; 1
     4a6:	92 07       	cpc	r25, r18
     4a8:	b8 f2       	brcs	.-82     	; 0x458 <ptc_process_measurement+0x4a>
/home/adam/.arduino15/packages/megaTinyCore/hardware/megaavr/2.6.11/libraries/PTC/src/ptc.c:733
        if (cc_add_rough >= 0x40) {
     4aa:	60 34       	cpi	r22, 0x40	; 64
     4ac:	a8 f2       	brcs	.-86     	; 0x458 <ptc_process_measurement+0x4a>
/home/adam/.arduino15/packages/megaTinyCore/hardware/megaavr/2.6.11/libraries/PTC/src/ptc.c:734
          cc_add_rough = (cc_add_rough - 0x40);
     4ae:	60 54       	subi	r22, 0x40	; 64
/home/adam/.arduino15/packages/megaTinyCore/hardware/megaavr/2.6.11/libraries/PTC/src/ptc.c:735
          rawData -= 0xF0;
     4b0:	8f e0       	ldi	r24, 0x0F	; 15
     4b2:	91 e0       	ldi	r25, 0x01	; 1
     4b4:	8c 1b       	sub	r24, r28
     4b6:	9d 0b       	sbc	r25, r29
     4b8:	cf cf       	rjmp	.-98     	; 0x458 <ptc_process_measurement+0x4a>
/home/adam/.arduino15/packages/megaTinyCore/hardware/megaavr/2.6.11/libraries/PTC/src/ptc.c:743
    }
  }

  while (rawData > 0x0001) {
    while (rawData > 0x00CF) {
      cc_rough += dir;            // this algorithm takes advantage of integer underflow
     4ba:	35 2f       	mov	r19, r21
     4bc:	32 0f       	add	r19, r18
/home/adam/.arduino15/packages/megaTinyCore/hardware/megaavr/2.6.11/libraries/PTC/src/ptc.c:744
      if (cc_rough > 0x03) {      // by checking against >0x03, we can also check for 0xFF aka -1
     4be:	34 30       	cpi	r19, 0x04	; 4
     4c0:	30 f4       	brcc	.+12     	; 0x4ce <ptc_process_measurement+0xc0>
/home/adam/.arduino15/packages/megaTinyCore/hardware/megaavr/2.6.11/libraries/PTC/src/ptc.c:748
        cc_rough -= dir;          // thus saving some flash. +/-1 can be made in one insn
        break;                    // by using sub reg with 0xFF or 0x01 in a reg respectively
      }
      rawData -= 0xCF;
     4c2:	8f 5c       	subi	r24, 0xCF	; 207
     4c4:	91 09       	sbc	r25, r1
     4c6:	23 2f       	mov	r18, r19
/home/adam/.arduino15/packages/megaTinyCore/hardware/megaavr/2.6.11/libraries/PTC/src/ptc.c:742
      }
    }
  }

  while (rawData > 0x0001) {
    while (rawData > 0x00CF) {
     4c8:	80 3d       	cpi	r24, 0xD0	; 208
     4ca:	91 05       	cpc	r25, r1
     4cc:	b0 f7       	brcc	.-20     	; 0x4ba <ptc_process_measurement+0xac>
/home/adam/.arduino15/packages/megaTinyCore/hardware/megaavr/2.6.11/libraries/PTC/src/ptc.c:751
        break;                    // by using sub reg with 0xFF or 0x01 in a reg respectively
      }
      rawData -= 0xCF;
    }

    while (rawData > 0x0015) {
     4ce:	86 31       	cpi	r24, 0x16	; 22
     4d0:	91 05       	cpc	r25, r1
     4d2:	38 f5       	brcc	.+78     	; 0x522 <ptc_process_measurement+0x114>
/home/adam/.arduino15/packages/megaTinyCore/hardware/megaavr/2.6.11/libraries/PTC/src/ptc.c:758
      if (cc_coarse > 0x0F) {
        break;
      }
      rawData -= 0x15;
    }
    if (cc_coarse > 0x0F) {
     4d4:	40 31       	cpi	r20, 0x10	; 16
     4d6:	28 f0       	brcs	.+10     	; 0x4e2 <ptc_process_measurement+0xd4>
/home/adam/.arduino15/packages/megaTinyCore/hardware/megaavr/2.6.11/libraries/PTC/src/ptc.c:759
      cc_rough += dir;
     4d8:	32 2f       	mov	r19, r18
     4da:	35 0f       	add	r19, r21
/home/adam/.arduino15/packages/megaTinyCore/hardware/megaavr/2.6.11/libraries/PTC/src/ptc.c:760
      if (cc_rough > 0x03) {
     4dc:	34 30       	cpi	r19, 0x04	; 4
     4de:	30 f1       	brcs	.+76     	; 0x52c <ptc_process_measurement+0x11e>
/home/adam/.arduino15/packages/megaTinyCore/hardware/megaavr/2.6.11/libraries/PTC/src/ptc.c:762
        cc_rough -= dir;
        cc_coarse -= dir;
     4e0:	45 1b       	sub	r20, r21
/home/adam/.arduino15/packages/megaTinyCore/hardware/megaavr/2.6.11/libraries/PTC/src/ptc.c:769
        cc_coarse -= dirOvf;
      }
    }


    while (rawData > 0x0001) {
     4e2:	82 30       	cpi	r24, 0x02	; 2
     4e4:	91 05       	cpc	r25, r1
     4e6:	28 f5       	brcc	.+74     	; 0x532 <ptc_process_measurement+0x124>
/home/adam/.arduino15/packages/megaTinyCore/hardware/megaavr/2.6.11/libraries/PTC/src/ptc.c:777
        break;
      }
      rawData -= 0x02;
    }

    if (cc_fine > 0x0F) {
     4e8:	a0 31       	cpi	r26, 0x10	; 16
     4ea:	38 f0       	brcs	.+14     	; 0x4fa <ptc_process_measurement+0xec>
/home/adam/.arduino15/packages/megaTinyCore/hardware/megaavr/2.6.11/libraries/PTC/src/ptc.c:778
      cc_coarse += dir;
     4ec:	45 0f       	add	r20, r21
/home/adam/.arduino15/packages/megaTinyCore/hardware/megaavr/2.6.11/libraries/PTC/src/ptc.c:779
      if (cc_coarse > 0x0F) {
     4ee:	40 31       	cpi	r20, 0x10	; 16
     4f0:	28 f1       	brcs	.+74     	; 0x53c <ptc_process_measurement+0x12e>
/home/adam/.arduino15/packages/megaTinyCore/hardware/megaavr/2.6.11/libraries/PTC/src/ptc.c:780
        cc_rough += dir;
     4f2:	25 0f       	add	r18, r21
/home/adam/.arduino15/packages/megaTinyCore/hardware/megaavr/2.6.11/libraries/PTC/src/ptc.c:781
        if (cc_rough > 0x03) {
     4f4:	24 30       	cpi	r18, 0x04	; 4
     4f6:	68 f5       	brcc	.+90     	; 0x552 <ptc_process_measurement+0x144>
/home/adam/.arduino15/packages/megaTinyCore/hardware/megaavr/2.6.11/libraries/PTC/src/ptc.c:791
            return PTC_LIB_CALIB_TOO_LOW;
          } else {
            return PTC_LIB_CALIB_TOO_HIGH;
          }
        } else {
          cc_coarse -= dirOvf;
     4f8:	4b 1b       	sub	r20, r27
/home/adam/.arduino15/packages/megaTinyCore/hardware/megaavr/2.6.11/libraries/PTC/src/ptc.c:741
        }
      }
    }
  }

  while (rawData > 0x0001) {
     4fa:	82 30       	cpi	r24, 0x02	; 2
     4fc:	91 05       	cpc	r25, r1
     4fe:	20 f7       	brcc	.-56     	; 0x4c8 <ptc_process_measurement+0xba>
/home/adam/.arduino15/packages/megaTinyCore/hardware/megaavr/2.6.11/libraries/PTC/src/ptc.c:800
      }
    } /* if (cc_fine > 0x0F) */
  } /* (rawData > 0x0001) */


  cc_fine <<= 4;
     500:	a2 95       	swap	r26
     502:	a0 7f       	andi	r26, 0xF0	; 240
/home/adam/.arduino15/packages/megaTinyCore/hardware/megaavr/2.6.11/libraries/PTC/src/ptc.c:801
  cc_rough <<= 4;
     504:	22 95       	swap	r18
     506:	20 7f       	andi	r18, 0xF0	; 240
/home/adam/.arduino15/packages/megaTinyCore/hardware/megaavr/2.6.11/libraries/PTC/src/ptc.c:803
  cc_rough |= cc_add_rough;
  cc_rough |= cc_coarse;
     508:	46 2b       	or	r20, r22
     50a:	24 2b       	or	r18, r20
/home/adam/.arduino15/packages/megaTinyCore/hardware/megaavr/2.6.11/libraries/PTC/src/ptc.c:689
uint8_t ptc_process_calibrate(cap_sensor_t *node) {
  uint16_t rawData = node->sensorData;

  #if defined(__PTC_Tiny__)
  uint16_t compensation = node->hw_compCaps;
  uint8_t cc_accurate =             compensation        & 0x0F;
     50c:	1f 70       	andi	r17, 0x0F	; 15
/home/adam/.arduino15/packages/megaTinyCore/hardware/megaavr/2.6.11/libraries/PTC/src/ptc.c:804

  cc_fine <<= 4;
  cc_rough <<= 4;
  cc_rough |= cc_add_rough;
  cc_rough |= cc_coarse;
  cc_fine  |= cc_accurate;
     50e:	a1 2b       	or	r26, r17
/home/adam/.arduino15/packages/megaTinyCore/hardware/megaavr/2.6.11/libraries/PTC/src/ptc.c:805
  node->hw_compCaps = (uint16_t)((cc_rough << 8) | cc_fine);
     510:	32 2f       	mov	r19, r18
     512:	2a 2f       	mov	r18, r26
     514:	27 83       	std	Z+7, r18	; 0x07
     516:	30 87       	std	Z+8, r19	; 0x08
ptc_process_node_sm():
/home/adam/.arduino15/packages/megaTinyCore/hardware/megaavr/2.6.11/libraries/PTC/src/ptc.c:567
        nodeSM = PTC_SM_LOW_POWER;
      } else {
        nodeSM = PTC_SM_NO_TOUCH;
      }
      ptc_event_cb_calibration(PTC_CB_EVENT_CONV_CALIB, node);
    } else if (PTC_LIB_SUCCESS != retVal || lastChange > 10) {  // if we stay here for over 10 conversions, something didn't went right
     518:	7b 30       	cpi	r23, 0x0B	; 11
     51a:	d8 f4       	brcc	.+54     	; 0x552 <ptc_process_measurement+0x144>
/home/adam/.arduino15/packages/megaTinyCore/hardware/megaavr/2.6.11/libraries/PTC/src/ptc.c:678

  if (node->stateMachine != nodeSM) {
    node->lastStateChange = 0;
    node->stateMachine = nodeSM;
  } else {
    node->lastStateChange = lastChange + 1;
     51c:	7f 5f       	subi	r23, 0xFF	; 255
     51e:	76 8b       	std	Z+22, r23	; 0x16
     520:	1b c0       	rjmp	.+54     	; 0x558 <ptc_process_measurement+0x14a>
ptc_process_calibrate():
/home/adam/.arduino15/packages/megaTinyCore/hardware/megaavr/2.6.11/libraries/PTC/src/ptc.c:752
      }
      rawData -= 0xCF;
    }

    while (rawData > 0x0015) {
      cc_coarse += dir;
     522:	45 0f       	add	r20, r21
/home/adam/.arduino15/packages/megaTinyCore/hardware/megaavr/2.6.11/libraries/PTC/src/ptc.c:753
      if (cc_coarse > 0x0F) {
     524:	40 31       	cpi	r20, 0x10	; 16
     526:	c0 f6       	brcc	.-80     	; 0x4d8 <ptc_process_measurement+0xca>
/home/adam/.arduino15/packages/megaTinyCore/hardware/megaavr/2.6.11/libraries/PTC/src/ptc.c:756
        break;
      }
      rawData -= 0x15;
     528:	45 97       	sbiw	r24, 0x15	; 21
     52a:	d1 cf       	rjmp	.-94     	; 0x4ce <ptc_process_measurement+0xc0>
/home/adam/.arduino15/packages/megaTinyCore/hardware/megaavr/2.6.11/libraries/PTC/src/ptc.c:764
      cc_rough += dir;
      if (cc_rough > 0x03) {
        cc_rough -= dir;
        cc_coarse -= dir;
      } else {
        cc_coarse -= dirOvf;
     52c:	4b 1b       	sub	r20, r27
     52e:	23 2f       	mov	r18, r19
     530:	d8 cf       	rjmp	.-80     	; 0x4e2 <ptc_process_measurement+0xd4>
/home/adam/.arduino15/packages/megaTinyCore/hardware/megaavr/2.6.11/libraries/PTC/src/ptc.c:770
      }
    }


    while (rawData > 0x0001) {
      cc_fine += dir;
     532:	a5 0f       	add	r26, r21
/home/adam/.arduino15/packages/megaTinyCore/hardware/megaavr/2.6.11/libraries/PTC/src/ptc.c:771
      if (cc_fine > 0x0F) {
     534:	a0 31       	cpi	r26, 0x10	; 16
     536:	d0 f6       	brcc	.-76     	; 0x4ec <ptc_process_measurement+0xde>
/home/adam/.arduino15/packages/megaTinyCore/hardware/megaavr/2.6.11/libraries/PTC/src/ptc.c:774
        break;
      }
      rawData -= 0x02;
     538:	02 97       	sbiw	r24, 0x02	; 2
     53a:	d3 cf       	rjmp	.-90     	; 0x4e2 <ptc_process_measurement+0xd4>
/home/adam/.arduino15/packages/megaTinyCore/hardware/megaavr/2.6.11/libraries/PTC/src/ptc.c:794
          }
        } else {
          cc_coarse -= dirOvf;
        }
      } else {
        cc_fine -= dirOvf;
     53c:	ab 1b       	sub	r26, r27
     53e:	dd cf       	rjmp	.-70     	; 0x4fa <ptc_process_measurement+0xec>
ptc_process_node_sm():
/home/adam/.arduino15/packages/megaTinyCore/hardware/megaavr/2.6.11/libraries/PTC/src/ptc.c:560
  int16_t  nodeDelta  = nodeData - reference;

  if (nodeSM == PTC_SM_NOINIT_CAL) {         /* Beginning here */
    uint8_t retVal = ptc_process_calibrate(node);
    if (PTC_LIB_CALIB_DONE == retVal) {
      node->reference = nodeData;
     540:	c7 87       	std	Z+15, r28	; 0x0f
     542:	d0 8b       	std	Z+16, r29	; 0x10
/home/adam/.arduino15/packages/megaTinyCore/hardware/megaavr/2.6.11/libraries/PTC/src/ptc.c:561
      if (node->state.low_power) {
     544:	84 85       	ldd	r24, Z+12	; 0x0c
     546:	82 ff       	sbrs	r24, 2
     548:	b3 c0       	rjmp	.+358    	; 0x6b0 <ptc_process_measurement+0x2a2>
ptc_process_measurement():
/home/adam/.arduino15/packages/megaTinyCore/hardware/megaavr/2.6.11/libraries/PTC/src/ptc.c:562
        nodeSM = PTC_SM_LOW_POWER;
     54a:	80 e8       	ldi	r24, 0x80	; 128
ptc_process_node_sm():
/home/adam/.arduino15/packages/megaTinyCore/hardware/megaavr/2.6.11/libraries/PTC/src/ptc.c:675

  }


  if (node->stateMachine != nodeSM) {
    node->lastStateChange = 0;
     54c:	16 8a       	std	Z+22, r1	; 0x16
/home/adam/.arduino15/packages/megaTinyCore/hardware/megaavr/2.6.11/libraries/PTC/src/ptc.c:676
    node->stateMachine = nodeSM;
     54e:	85 8b       	std	Z+21, r24	; 0x15
     550:	03 c0       	rjmp	.+6      	; 0x558 <ptc_process_measurement+0x14a>
/home/adam/.arduino15/packages/megaTinyCore/hardware/megaavr/2.6.11/libraries/PTC/src/ptc.c:568
      } else {
        nodeSM = PTC_SM_NO_TOUCH;
      }
      ptc_event_cb_calibration(PTC_CB_EVENT_CONV_CALIB, node);
    } else if (PTC_LIB_SUCCESS != retVal || lastChange > 10) {  // if we stay here for over 10 conversions, something didn't went right
      node->state.error = 1;
     552:	84 85       	ldd	r24, Z+12	; 0x0c
     554:	81 60       	ori	r24, 0x01	; 1
     556:	84 87       	std	Z+12, r24	; 0x0c
ptc_process_measurement():
/home/adam/.arduino15/packages/megaTinyCore/hardware/megaavr/2.6.11/libraries/PTC/src/ptc.c:546
  if (node->state.data_ready != 0) {
    node->state.data_ready = 0;
    ptc_process_node_sm(node);
    ptc_event_cb_conversion(PTC_CB_EVENT_CONV_CMPL, node);
  }
}
     558:	df 91       	pop	r29
     55a:	cf 91       	pop	r28
     55c:	1f 91       	pop	r17
     55e:	08 95       	ret
ptc_process_node_sm():
/home/adam/.arduino15/packages/megaTinyCore/hardware/megaavr/2.6.11/libraries/PTC/src/ptc.c:554

void ptc_process_node_sm(cap_sensor_t *node) {
  uint16_t nodeData   = node->sensorData;
  uint8_t  nodeSM     = node->stateMachine;
  uint8_t  lastChange = node->lastStateChange;
  uint16_t reference  = node->reference;
     560:	47 85       	ldd	r20, Z+15	; 0x0f
     562:	50 89       	ldd	r21, Z+16	; 0x10
/home/adam/.arduino15/packages/megaTinyCore/hardware/megaavr/2.6.11/libraries/PTC/src/ptc.c:555
  int16_t  nodeDelta  = nodeData - reference;
     564:	c4 1b       	sub	r28, r20
     566:	d5 0b       	sbc	r29, r21
/home/adam/.arduino15/packages/megaTinyCore/hardware/megaavr/2.6.11/libraries/PTC/src/ptc.c:581
      return;
    } else if (PTC_LIB_SUCCESS == retVal) {
      // calibration didn't finish (yet), but didn't threw an error
    }

  } else if (nodeSM & PTC_SM_RECAL_FLT) {   /* if the delta was really low, we might have to recalibrate the caps */
     568:	90 ff       	sbrs	r25, 0
     56a:	07 c0       	rjmp	.+14     	; 0x57a <ptc_process_measurement+0x16c>
/home/adam/.arduino15/packages/megaTinyCore/hardware/megaavr/2.6.11/libraries/PTC/src/ptc.c:582
    if (nodeDelta > -150) {
     56c:	cb 36       	cpi	r28, 0x6B	; 107
     56e:	df 4f       	sbci	r29, 0xFF	; 255
     570:	9c f4       	brge	.+38     	; 0x598 <ptc_process_measurement+0x18a>
/home/adam/.arduino15/packages/megaTinyCore/hardware/megaavr/2.6.11/libraries/PTC/src/ptc.c:584
      nodeSM = PTC_SM_NO_TOUCH;
    } else if (lastChange > 3) {
     572:	74 30       	cpi	r23, 0x04	; 4
     574:	98 f2       	brcs	.-90     	; 0x51c <ptc_process_measurement+0x10e>
ptc_process_measurement():
/home/adam/.arduino15/packages/megaTinyCore/hardware/megaavr/2.6.11/libraries/PTC/src/ptc.c:585
      nodeSM = PTC_SM_NOINIT_CAL;
     576:	80 e0       	ldi	r24, 0x00	; 0
     578:	e9 cf       	rjmp	.-46     	; 0x54c <ptc_process_measurement+0x13e>
ptc_process_node_sm():
/home/adam/.arduino15/packages/megaTinyCore/hardware/megaavr/2.6.11/libraries/PTC/src/ptc.c:589
    }


  } else if (nodeSM & PTC_SM_NT_LOW_FLT) {   /* no touch, delta below -1, threshold drift */
     57a:	91 ff       	sbrs	r25, 1
     57c:	0f c0       	rjmp	.+30     	; 0x59c <ptc_process_measurement+0x18e>
/home/adam/.arduino15/packages/megaTinyCore/hardware/megaavr/2.6.11/libraries/PTC/src/ptc.c:590
    if (nodeDelta > 0) {
     57e:	1c 16       	cp	r1, r28
     580:	1d 06       	cpc	r1, r29
     582:	54 f0       	brlt	.+20     	; 0x598 <ptc_process_measurement+0x18a>
/home/adam/.arduino15/packages/megaTinyCore/hardware/megaavr/2.6.11/libraries/PTC/src/ptc.c:592
      nodeSM = PTC_SM_NO_TOUCH;
    } else if (nodeDelta < -150) {
     584:	ca 36       	cpi	r28, 0x6A	; 106
     586:	df 4f       	sbci	r29, 0xFF	; 255
     588:	0c f4       	brge	.+2      	; 0x58c <ptc_process_measurement+0x17e>
     58a:	8c c0       	rjmp	.+280    	; 0x6a4 <ptc_process_measurement+0x296>
/home/adam/.arduino15/packages/megaTinyCore/hardware/megaavr/2.6.11/libraries/PTC/src/ptc.c:595
      nodeSM = PTC_SM_RECAL_FLT;
    } else if (lastChange > ptc_sm_settings.drift_down_nom) {  /* By using '>' the drift can be disabled with integer overflow */
      node->reference--;
     58c:	41 50       	subi	r20, 0x01	; 1
     58e:	51 09       	sbc	r21, r1
/home/adam/.arduino15/packages/megaTinyCore/hardware/megaavr/2.6.11/libraries/PTC/src/ptc.c:594
  } else if (nodeSM & PTC_SM_NT_LOW_FLT) {   /* no touch, delta below -1, threshold drift */
    if (nodeDelta > 0) {
      nodeSM = PTC_SM_NO_TOUCH;
    } else if (nodeDelta < -150) {
      nodeSM = PTC_SM_RECAL_FLT;
    } else if (lastChange > ptc_sm_settings.drift_down_nom) {  /* By using '>' the drift can be disabled with integer overflow */
     590:	70 31       	cpi	r23, 0x10	; 16
     592:	20 f2       	brcs	.-120    	; 0x51c <ptc_process_measurement+0x10e>
/home/adam/.arduino15/packages/megaTinyCore/hardware/megaavr/2.6.11/libraries/PTC/src/ptc.c:622
    if (nodeDelta < 0) {
      nodeSM = PTC_SM_NO_TOUCH;
    } else if (nodeDelta >= node->touch_in_th) {
      nodeSM = PTC_SM_TOUCH_IN_FLT;
    } else if (lastChange > ptc_sm_settings.drift_up_nom) {
      node->reference++;
     594:	47 87       	std	Z+15, r20	; 0x0f
     596:	50 8b       	std	Z+16, r21	; 0x10
ptc_process_measurement():
/home/adam/.arduino15/packages/megaTinyCore/hardware/megaavr/2.6.11/libraries/PTC/src/ptc.c:583
      // calibration didn't finish (yet), but didn't threw an error
    }

  } else if (nodeSM & PTC_SM_RECAL_FLT) {   /* if the delta was really low, we might have to recalibrate the caps */
    if (nodeDelta > -150) {
      nodeSM = PTC_SM_NO_TOUCH;
     598:	84 e0       	ldi	r24, 0x04	; 4
     59a:	1b c0       	rjmp	.+54     	; 0x5d2 <ptc_process_measurement+0x1c4>
ptc_process_node_sm():
/home/adam/.arduino15/packages/megaTinyCore/hardware/megaavr/2.6.11/libraries/PTC/src/ptc.c:600
      node->reference--;
      nodeSM = PTC_SM_NO_TOUCH;
    }


  } else if (nodeSM & PTC_SM_NO_TOUCH) {  /* default State, no touch */
     59c:	92 ff       	sbrs	r25, 2
     59e:	1c c0       	rjmp	.+56     	; 0x5d8 <ptc_process_measurement+0x1ca>
/home/adam/.arduino15/packages/megaTinyCore/hardware/megaavr/2.6.11/libraries/PTC/src/ptc.c:601
    if (nodeDelta < -150) {               /* if the touch value is way too small, something changed with the lines, recalibrate */
     5a0:	ca 36       	cpi	r28, 0x6A	; 106
     5a2:	8f ef       	ldi	r24, 0xFF	; 255
     5a4:	d8 07       	cpc	r29, r24
     5a6:	0c f4       	brge	.+2      	; 0x5aa <ptc_process_measurement+0x19c>
     5a8:	7d c0       	rjmp	.+250    	; 0x6a4 <ptc_process_measurement+0x296>
/home/adam/.arduino15/packages/megaTinyCore/hardware/megaavr/2.6.11/libraries/PTC/src/ptc.c:603
      nodeSM = PTC_SM_RECAL_FLT;
    } else if (nodeDelta >= node->touch_in_th) {
     5aa:	a1 89       	ldd	r26, Z+17	; 0x11
     5ac:	b2 89       	ldd	r27, Z+18	; 0x12
     5ae:	ca 17       	cp	r28, r26
     5b0:	db 07       	cpc	r29, r27
     5b2:	0c f0       	brlt	.+2      	; 0x5b6 <ptc_process_measurement+0x1a8>
     5b4:	7b c0       	rjmp	.+246    	; 0x6ac <ptc_process_measurement+0x29e>
/home/adam/.arduino15/packages/megaTinyCore/hardware/megaavr/2.6.11/libraries/PTC/src/ptc.c:605
      nodeSM = PTC_SM_TOUCH_IN_FLT;
    } else if (reference <= (512 - ptc_sm_settings.force_recal_delta)) {
     5b6:	4b 56       	subi	r20, 0x6B	; 107
     5b8:	51 40       	sbci	r21, 0x01	; 1
     5ba:	4b 32       	cpi	r20, 0x2B	; 43
     5bc:	51 40       	sbci	r21, 0x01	; 1
     5be:	d8 f6       	brcc	.-74     	; 0x576 <ptc_process_measurement+0x168>
/home/adam/.arduino15/packages/megaTinyCore/hardware/megaavr/2.6.11/libraries/PTC/src/ptc.c:609
      nodeSM = PTC_SM_NOINIT_CAL;
    } else if (reference >= (512 + ptc_sm_settings.force_recal_delta)) {
      nodeSM = PTC_SM_NOINIT_CAL;
    } else if (nodeDelta < -1) {
     5c0:	cf 3f       	cpi	r28, 0xFF	; 255
     5c2:	8f ef       	ldi	r24, 0xFF	; 255
     5c4:	d8 07       	cpc	r29, r24
     5c6:	0c f4       	brge	.+2      	; 0x5ca <ptc_process_measurement+0x1bc>
     5c8:	6f c0       	rjmp	.+222    	; 0x6a8 <ptc_process_measurement+0x29a>
ptc_process_measurement():
/home/adam/.arduino15/packages/megaTinyCore/hardware/megaavr/2.6.11/libraries/PTC/src/ptc.c:612
      nodeSM = PTC_SM_NT_LOW_FLT;
    } else if (nodeDelta > 1) {
      nodeSM = PTC_SM_NT_HIGH_FLT;
     5ca:	88 e0       	ldi	r24, 0x08	; 8
ptc_process_node_sm():
/home/adam/.arduino15/packages/megaTinyCore/hardware/megaavr/2.6.11/libraries/PTC/src/ptc.c:611
      nodeSM = PTC_SM_NOINIT_CAL;
    } else if (reference >= (512 + ptc_sm_settings.force_recal_delta)) {
      nodeSM = PTC_SM_NOINIT_CAL;
    } else if (nodeDelta < -1) {
      nodeSM = PTC_SM_NT_LOW_FLT;
    } else if (nodeDelta > 1) {
     5cc:	22 97       	sbiw	r28, 0x02	; 2
     5ce:	0c f4       	brge	.+2      	; 0x5d2 <ptc_process_measurement+0x1c4>
     5d0:	a5 cf       	rjmp	.-182    	; 0x51c <ptc_process_measurement+0x10e>
/home/adam/.arduino15/packages/megaTinyCore/hardware/megaavr/2.6.11/libraries/PTC/src/ptc.c:674


  }


  if (node->stateMachine != nodeSM) {
     5d2:	98 13       	cpse	r25, r24
     5d4:	bb cf       	rjmp	.-138    	; 0x54c <ptc_process_measurement+0x13e>
     5d6:	a2 cf       	rjmp	.-188    	; 0x51c <ptc_process_measurement+0x10e>
/home/adam/.arduino15/packages/megaTinyCore/hardware/megaavr/2.6.11/libraries/PTC/src/ptc.c:616
    } else if (nodeDelta > 1) {
      nodeSM = PTC_SM_NT_HIGH_FLT;
    }


  } else if (nodeSM & PTC_SM_NT_HIGH_FLT) {
     5d8:	93 ff       	sbrs	r25, 3
     5da:	0e c0       	rjmp	.+28     	; 0x5f8 <ptc_process_measurement+0x1ea>
/home/adam/.arduino15/packages/megaTinyCore/hardware/megaavr/2.6.11/libraries/PTC/src/ptc.c:617
    if (nodeDelta < 0) {
     5dc:	d7 fd       	sbrc	r29, 7
     5de:	dc cf       	rjmp	.-72     	; 0x598 <ptc_process_measurement+0x18a>
/home/adam/.arduino15/packages/megaTinyCore/hardware/megaavr/2.6.11/libraries/PTC/src/ptc.c:619
      nodeSM = PTC_SM_NO_TOUCH;
    } else if (nodeDelta >= node->touch_in_th) {
     5e0:	a1 89       	ldd	r26, Z+17	; 0x11
     5e2:	b2 89       	ldd	r27, Z+18	; 0x12
     5e4:	ca 17       	cp	r28, r26
     5e6:	db 07       	cpc	r29, r27
     5e8:	0c f0       	brlt	.+2      	; 0x5ec <ptc_process_measurement+0x1de>
     5ea:	60 c0       	rjmp	.+192    	; 0x6ac <ptc_process_measurement+0x29e>
/home/adam/.arduino15/packages/megaTinyCore/hardware/megaavr/2.6.11/libraries/PTC/src/ptc.c:621
      nodeSM = PTC_SM_TOUCH_IN_FLT;
    } else if (lastChange > ptc_sm_settings.drift_up_nom) {
     5ec:	70 31       	cpi	r23, 0x10	; 16
     5ee:	08 f4       	brcc	.+2      	; 0x5f2 <ptc_process_measurement+0x1e4>
     5f0:	95 cf       	rjmp	.-214    	; 0x51c <ptc_process_measurement+0x10e>
/home/adam/.arduino15/packages/megaTinyCore/hardware/megaavr/2.6.11/libraries/PTC/src/ptc.c:622
      node->reference++;
     5f2:	4f 5f       	subi	r20, 0xFF	; 255
     5f4:	5f 4f       	sbci	r21, 0xFF	; 255
     5f6:	ce cf       	rjmp	.-100    	; 0x594 <ptc_process_measurement+0x186>
/home/adam/.arduino15/packages/megaTinyCore/hardware/megaavr/2.6.11/libraries/PTC/src/ptc.c:627
      nodeSM = PTC_SM_NO_TOUCH;
    }


  } else if (nodeSM & PTC_SM_TOUCH_IN_FLT) {
     5f8:	94 ff       	sbrs	r25, 4
     5fa:	08 c0       	rjmp	.+16     	; 0x60c <ptc_process_measurement+0x1fe>
/home/adam/.arduino15/packages/megaTinyCore/hardware/megaavr/2.6.11/libraries/PTC/src/ptc.c:628
    if (lastChange >= ptc_sm_settings.touched_detect_nom) {
     5fc:	73 30       	cpi	r23, 0x03	; 3
     5fe:	80 f4       	brcc	.+32     	; 0x620 <ptc_process_measurement+0x212>
/home/adam/.arduino15/packages/megaTinyCore/hardware/megaavr/2.6.11/libraries/PTC/src/ptc.c:631
      nodeSM = PTC_SM_TOUCH_DETECT;
      ptc_event_cb_touch(PTC_CB_EVENT_TOUCH_DETECT, node);
    } else if (nodeDelta < node->touch_in_th) {
     600:	41 89       	ldd	r20, Z+17	; 0x11
     602:	52 89       	ldd	r21, Z+18	; 0x12
     604:	c4 17       	cp	r28, r20
     606:	d5 07       	cpc	r29, r21
     608:	3c f2       	brlt	.-114    	; 0x598 <ptc_process_measurement+0x18a>
     60a:	88 cf       	rjmp	.-240    	; 0x51c <ptc_process_measurement+0x10e>
/home/adam/.arduino15/packages/megaTinyCore/hardware/megaavr/2.6.11/libraries/PTC/src/ptc.c:636
      nodeSM = PTC_SM_NO_TOUCH;
    }


  } else if (nodeSM & PTC_SM_TOUCH_OUT_FLT) {
     60c:	95 ff       	sbrs	r25, 5
     60e:	0a c0       	rjmp	.+20     	; 0x624 <ptc_process_measurement+0x216>
/home/adam/.arduino15/packages/megaTinyCore/hardware/megaavr/2.6.11/libraries/PTC/src/ptc.c:637
    if (lastChange >= ptc_sm_settings.untouched_detect_nom) {
     610:	73 30       	cpi	r23, 0x03	; 3
     612:	10 f6       	brcc	.-124    	; 0x598 <ptc_process_measurement+0x18a>
/home/adam/.arduino15/packages/megaTinyCore/hardware/megaavr/2.6.11/libraries/PTC/src/ptc.c:640
      nodeSM = PTC_SM_NO_TOUCH;
      ptc_event_cb_touch(PTC_CB_EVENT_TOUCH_RELEASE, node);
    } else if (nodeDelta > node->touch_in_th) {
     614:	41 89       	ldd	r20, Z+17	; 0x11
     616:	52 89       	ldd	r21, Z+18	; 0x12
     618:	4c 17       	cp	r20, r28
     61a:	5d 07       	cpc	r21, r29
     61c:	0c f0       	brlt	.+2      	; 0x620 <ptc_process_measurement+0x212>
     61e:	7e cf       	rjmp	.-260    	; 0x51c <ptc_process_measurement+0x10e>
ptc_process_measurement():
/home/adam/.arduino15/packages/megaTinyCore/hardware/megaavr/2.6.11/libraries/PTC/src/ptc.c:629
    }


  } else if (nodeSM & PTC_SM_TOUCH_IN_FLT) {
    if (lastChange >= ptc_sm_settings.touched_detect_nom) {
      nodeSM = PTC_SM_TOUCH_DETECT;
     620:	80 e4       	ldi	r24, 0x40	; 64
     622:	d7 cf       	rjmp	.-82     	; 0x5d2 <ptc_process_measurement+0x1c4>
ptc_process_node_sm():
/home/adam/.arduino15/packages/megaTinyCore/hardware/megaavr/2.6.11/libraries/PTC/src/ptc.c:645
    } else if (nodeDelta > node->touch_in_th) {
      nodeSM = PTC_SM_TOUCH_DETECT;
    }


  } else if (nodeSM & PTC_SM_TOUCH_DETECT) {
     624:	96 ff       	sbrs	r25, 6
     626:	0b c0       	rjmp	.+22     	; 0x63e <ptc_process_measurement+0x230>
/home/adam/.arduino15/packages/megaTinyCore/hardware/megaavr/2.6.11/libraries/PTC/src/ptc.c:646
    if (lastChange > ptc_sm_settings.touched_max_nom) {
     628:	79 3c       	cpi	r23, 0xC9	; 201
     62a:	08 f0       	brcs	.+2      	; 0x62e <ptc_process_measurement+0x220>
     62c:	a4 cf       	rjmp	.-184    	; 0x576 <ptc_process_measurement+0x168>
/home/adam/.arduino15/packages/megaTinyCore/hardware/megaavr/2.6.11/libraries/PTC/src/ptc.c:648
      nodeSM = PTC_SM_NOINIT_CAL;
    } else if (nodeDelta < node->touch_out_th) {
     62e:	43 89       	ldd	r20, Z+19	; 0x13
     630:	54 89       	ldd	r21, Z+20	; 0x14
     632:	c4 17       	cp	r28, r20
     634:	d5 07       	cpc	r29, r21
     636:	0c f0       	brlt	.+2      	; 0x63a <ptc_process_measurement+0x22c>
     638:	71 cf       	rjmp	.-286    	; 0x51c <ptc_process_measurement+0x10e>
ptc_process_measurement():
/home/adam/.arduino15/packages/megaTinyCore/hardware/megaavr/2.6.11/libraries/PTC/src/ptc.c:649
      nodeSM = PTC_SM_TOUCH_OUT_FLT;
     63a:	80 e2       	ldi	r24, 0x20	; 32
     63c:	ca cf       	rjmp	.-108    	; 0x5d2 <ptc_process_measurement+0x1c4>
ptc_process_node_sm():
/home/adam/.arduino15/packages/megaTinyCore/hardware/megaavr/2.6.11/libraries/PTC/src/ptc.c:653
    }


  } else if (nodeSM & PTC_SM_LOW_POWER) {
     63e:	97 ff       	sbrs	r25, 7
     640:	6d cf       	rjmp	.-294    	; 0x51c <ptc_process_measurement+0x10e>
/home/adam/.arduino15/packages/megaTinyCore/hardware/megaavr/2.6.11/libraries/PTC/src/ptc.c:654
    if (0 == node->state.low_power) {
     642:	84 85       	ldd	r24, Z+12	; 0x0c
     644:	82 fd       	sbrc	r24, 2
     646:	1e c0       	rjmp	.+60     	; 0x684 <ptc_process_measurement+0x276>
/home/adam/.arduino15/packages/megaTinyCore/hardware/megaavr/2.6.11/libraries/PTC/src/ptc.c:655
      if (nodeDelta > node->touch_in_th) {
     648:	a1 89       	ldd	r26, Z+17	; 0x11
     64a:	b2 89       	ldd	r27, Z+18	; 0x12
ptc_process_measurement():
/home/adam/.arduino15/packages/megaTinyCore/hardware/megaavr/2.6.11/libraries/PTC/src/ptc.c:656
        nodeSM = PTC_SM_TOUCH_DETECT;
     64c:	80 e4       	ldi	r24, 0x40	; 64
ptc_process_node_sm():
/home/adam/.arduino15/packages/megaTinyCore/hardware/megaavr/2.6.11/libraries/PTC/src/ptc.c:655
    }


  } else if (nodeSM & PTC_SM_LOW_POWER) {
    if (0 == node->state.low_power) {
      if (nodeDelta > node->touch_in_th) {
     64e:	ac 17       	cp	r26, r28
     650:	bd 07       	cpc	r27, r29
     652:	0c f0       	brlt	.+2      	; 0x656 <ptc_process_measurement+0x248>
ptc_process_measurement():
/home/adam/.arduino15/packages/megaTinyCore/hardware/megaavr/2.6.11/libraries/PTC/src/ptc.c:658
        nodeSM = PTC_SM_TOUCH_DETECT;
      } else {
        nodeSM = PTC_SM_NO_TOUCH;
     654:	84 e0       	ldi	r24, 0x04	; 4
ptc_process_node_sm():
/home/adam/.arduino15/packages/megaTinyCore/hardware/megaavr/2.6.11/libraries/PTC/src/ptc.c:660
      }
      lowPowerNode = NULL;
     656:	10 92 3b 3e 	sts	0x3E3B, r1	; 0x803e3b <lowPowerNode>
     65a:	10 92 3c 3e 	sts	0x3E3C, r1	; 0x803e3c <lowPowerNode+0x1>
/home/adam/.arduino15/packages/megaTinyCore/hardware/megaavr/2.6.11/libraries/PTC/src/ptc.c:662
    }
    if (nodeDelta < -1) {
     65e:	cf 3f       	cpi	r28, 0xFF	; 255
     660:	2f ef       	ldi	r18, 0xFF	; 255
     662:	d2 07       	cpc	r29, r18
     664:	8c f4       	brge	.+34     	; 0x688 <ptc_process_measurement+0x27a>
/home/adam/.arduino15/packages/megaTinyCore/hardware/megaavr/2.6.11/libraries/PTC/src/ptc.c:663
      node->reference--;
     666:	41 50       	subi	r20, 0x01	; 1
     668:	51 09       	sbc	r21, r1
     66a:	47 87       	std	Z+15, r20	; 0x0f
     66c:	50 8b       	std	Z+16, r21	; 0x10
/home/adam/.arduino15/packages/megaTinyCore/hardware/megaavr/2.6.11/libraries/PTC/src/ptc.c:664
      PTC.WINHT--;
     66e:	20 91 14 06 	lds	r18, 0x0614	; 0x800614 <digital_pin_to_bit_mask+0x7f663c>
     672:	30 91 15 06 	lds	r19, 0x0615	; 0x800615 <digital_pin_to_bit_mask+0x7f663d>
     676:	21 50       	subi	r18, 0x01	; 1
     678:	31 09       	sbc	r19, r1
/home/adam/.arduino15/packages/megaTinyCore/hardware/megaavr/2.6.11/libraries/PTC/src/ptc.c:667
    } else if (nodeDelta > 1) {
      node->reference++;
      PTC.WINHT++;
     67a:	20 93 14 06 	sts	0x0614, r18	; 0x800614 <digital_pin_to_bit_mask+0x7f663c>
     67e:	30 93 15 06 	sts	0x0615, r19	; 0x800615 <digital_pin_to_bit_mask+0x7f663d>
     682:	a7 cf       	rjmp	.-178    	; 0x5d2 <ptc_process_measurement+0x1c4>
/home/adam/.arduino15/packages/megaTinyCore/hardware/megaavr/2.6.11/libraries/PTC/src/ptc.c:654
      nodeSM = PTC_SM_TOUCH_OUT_FLT;
    }


  } else if (nodeSM & PTC_SM_LOW_POWER) {
    if (0 == node->state.low_power) {
     684:	89 2f       	mov	r24, r25
     686:	eb cf       	rjmp	.-42     	; 0x65e <ptc_process_measurement+0x250>
/home/adam/.arduino15/packages/megaTinyCore/hardware/megaavr/2.6.11/libraries/PTC/src/ptc.c:665
      lowPowerNode = NULL;
    }
    if (nodeDelta < -1) {
      node->reference--;
      PTC.WINHT--;
    } else if (nodeDelta > 1) {
     688:	22 97       	sbiw	r28, 0x02	; 2
     68a:	0c f4       	brge	.+2      	; 0x68e <ptc_process_measurement+0x280>
     68c:	a2 cf       	rjmp	.-188    	; 0x5d2 <ptc_process_measurement+0x1c4>
/home/adam/.arduino15/packages/megaTinyCore/hardware/megaavr/2.6.11/libraries/PTC/src/ptc.c:666
      node->reference++;
     68e:	4f 5f       	subi	r20, 0xFF	; 255
     690:	5f 4f       	sbci	r21, 0xFF	; 255
     692:	47 87       	std	Z+15, r20	; 0x0f
     694:	50 8b       	std	Z+16, r21	; 0x10
/home/adam/.arduino15/packages/megaTinyCore/hardware/megaavr/2.6.11/libraries/PTC/src/ptc.c:667
      PTC.WINHT++;
     696:	20 91 14 06 	lds	r18, 0x0614	; 0x800614 <digital_pin_to_bit_mask+0x7f663c>
     69a:	30 91 15 06 	lds	r19, 0x0615	; 0x800615 <digital_pin_to_bit_mask+0x7f663d>
     69e:	2f 5f       	subi	r18, 0xFF	; 255
     6a0:	3f 4f       	sbci	r19, 0xFF	; 255
     6a2:	eb cf       	rjmp	.-42     	; 0x67a <ptc_process_measurement+0x26c>
ptc_process_measurement():
/home/adam/.arduino15/packages/megaTinyCore/hardware/megaavr/2.6.11/libraries/PTC/src/ptc.c:593

  } else if (nodeSM & PTC_SM_NT_LOW_FLT) {   /* no touch, delta below -1, threshold drift */
    if (nodeDelta > 0) {
      nodeSM = PTC_SM_NO_TOUCH;
    } else if (nodeDelta < -150) {
      nodeSM = PTC_SM_RECAL_FLT;
     6a4:	81 e0       	ldi	r24, 0x01	; 1
     6a6:	95 cf       	rjmp	.-214    	; 0x5d2 <ptc_process_measurement+0x1c4>
/home/adam/.arduino15/packages/megaTinyCore/hardware/megaavr/2.6.11/libraries/PTC/src/ptc.c:610
    } else if (reference <= (512 - ptc_sm_settings.force_recal_delta)) {
      nodeSM = PTC_SM_NOINIT_CAL;
    } else if (reference >= (512 + ptc_sm_settings.force_recal_delta)) {
      nodeSM = PTC_SM_NOINIT_CAL;
    } else if (nodeDelta < -1) {
      nodeSM = PTC_SM_NT_LOW_FLT;
     6a8:	82 e0       	ldi	r24, 0x02	; 2
     6aa:	93 cf       	rjmp	.-218    	; 0x5d2 <ptc_process_measurement+0x1c4>
/home/adam/.arduino15/packages/megaTinyCore/hardware/megaavr/2.6.11/libraries/PTC/src/ptc.c:604

  } else if (nodeSM & PTC_SM_NO_TOUCH) {  /* default State, no touch */
    if (nodeDelta < -150) {               /* if the touch value is way too small, something changed with the lines, recalibrate */
      nodeSM = PTC_SM_RECAL_FLT;
    } else if (nodeDelta >= node->touch_in_th) {
      nodeSM = PTC_SM_TOUCH_IN_FLT;
     6ac:	80 e1       	ldi	r24, 0x10	; 16
     6ae:	91 cf       	rjmp	.-222    	; 0x5d2 <ptc_process_measurement+0x1c4>
/home/adam/.arduino15/packages/megaTinyCore/hardware/megaavr/2.6.11/libraries/PTC/src/ptc.c:564
    if (PTC_LIB_CALIB_DONE == retVal) {
      node->reference = nodeData;
      if (node->state.low_power) {
        nodeSM = PTC_SM_LOW_POWER;
      } else {
        nodeSM = PTC_SM_NO_TOUCH;
     6b0:	84 e0       	ldi	r24, 0x04	; 4
     6b2:	4c cf       	rjmp	.-360    	; 0x54c <ptc_process_measurement+0x13e>

000006b4 <colorForIndex(unsigned char)>:
_Z13colorForIndexh():
/home/adam/bsides-leeds-2026-badge/firmware/firmware.ino:379
static const uint8_t LEFT_PLAYER_MASK = LEFT_BLUE_MASK | LEFT_RED_MASK | LEFT_GREEN_MASK;
static const uint8_t RIGHT_PLAYER_MASK = RIGHT_BLUE_MASK | RIGHT_RED_MASK | RIGHT_GREEN_MASK;

RgbColor colorForIndex(uint8_t colorIndex)
{
  switch (colorIndex) {
     6b4:	81 30       	cpi	r24, 0x01	; 1
     6b6:	41 f0       	breq	.+16     	; 0x6c8 <colorForIndex(unsigned char)+0x14>
     6b8:	20 f0       	brcs	.+8      	; 0x6c2 <colorForIndex(unsigned char)+0xe>
     6ba:	82 30       	cpi	r24, 0x02	; 2
     6bc:	49 f0       	breq	.+18     	; 0x6d0 <colorForIndex(unsigned char)+0x1c>
     6be:	60 e0       	ldi	r22, 0x00	; 0
     6c0:	01 c0       	rjmp	.+2      	; 0x6c4 <colorForIndex(unsigned char)+0x10>
/home/adam/bsides-leeds-2026-badge/firmware/firmware.ino:381
    case 0:
      return COLOR_RED;
     6c2:	6e e1       	ldi	r22, 0x1E	; 30
     6c4:	70 e0       	ldi	r23, 0x00	; 0
     6c6:	02 c0       	rjmp	.+4      	; 0x6cc <colorForIndex(unsigned char)+0x18>
/home/adam/bsides-leeds-2026-badge/firmware/firmware.ino:383
    case 1:
      return COLOR_GREEN;
     6c8:	60 e0       	ldi	r22, 0x00	; 0
     6ca:	7e e1       	ldi	r23, 0x1E	; 30
     6cc:	80 e0       	ldi	r24, 0x00	; 0
/home/adam/bsides-leeds-2026-badge/firmware/firmware.ino:389
    case 2:
      return COLOR_BLUE;
    default:
      return COLOR_OFF;
  }
}
     6ce:	08 95       	ret
/home/adam/bsides-leeds-2026-badge/firmware/firmware.ino:385
    case 0:
      return COLOR_RED;
    case 1:
      return COLOR_GREEN;
    case 2:
      return COLOR_BLUE;
     6d0:	60 e0       	ldi	r22, 0x00	; 0
     6d2:	70 e0       	ldi	r23, 0x00	; 0
     6d4:	8e e1       	ldi	r24, 0x1E	; 30
     6d6:	08 95       	ret

000006d8 <setSequenceSlotColor(unsigned char, unsigned char)>:
_Z20setSequenceSlotColorhh():
/home/adam/bsides-leeds-2026-badge/firmware/firmware.ino:883
  disableRebootOnButton();
  return leftScore != rightScore;
}

void setSequenceSlotColor(uint8_t slotIndex, uint8_t colorIndex)
{
     6d8:	cf 93       	push	r28
     6da:	c8 2f       	mov	r28, r24
     6dc:	86 2f       	mov	r24, r22
/home/adam/bsides-leeds-2026-badge/firmware/firmware.ino:884
  const RgbColor color = colorForIndex(colorIndex);
     6de:	ea df       	rcall	.-44     	; 0x6b4 <colorForIndex(unsigned char)>
     6e0:	47 2f       	mov	r20, r23
/home/adam/bsides-leeds-2026-badge/firmware/firmware.ino:885
  ledStrip.setPixelColor(slotIndex, color.red, color.green, color.blue);
     6e2:	28 2f       	mov	r18, r24
     6e4:	8c 2f       	mov	r24, r28
     6e6:	90 e0       	ldi	r25, 0x00	; 0
/home/adam/bsides-leeds-2026-badge/firmware/firmware.ino:886
}
     6e8:	cf 91       	pop	r28
/home/adam/bsides-leeds-2026-badge/firmware/firmware.ino:885
}

void setSequenceSlotColor(uint8_t slotIndex, uint8_t colorIndex)
{
  const RgbColor color = colorForIndex(colorIndex);
  ledStrip.setPixelColor(slotIndex, color.red, color.green, color.blue);
     6ea:	f4 cc       	rjmp	.-1560   	; 0xd4 <tinyNeoPixel::setPixelColor(unsigned int, unsigned char, unsigned char, unsigned char) [clone .constprop.15]>

000006ec <setRightEyeLed(unsigned char, unsigned char, unsigned char, unsigned char)>:
_Z14setRightEyeLedhhhh():
/home/adam/bsides-leeds-2026-badge/firmware/firmware.ino:300
  setLeftEye(red, green, blue, 9);
}

void setRightEyeLed(uint8_t ledIndex, uint8_t red, uint8_t green, uint8_t blue)
{
  ledStrip.setPixelColor(ledIndex == 0 ? 17 : ledIndex + 8, red, green, blue);
     6ec:	88 23       	and	r24, r24
     6ee:	19 f0       	breq	.+6      	; 0x6f6 <setRightEyeLed(unsigned char, unsigned char, unsigned char, unsigned char)+0xa>
     6f0:	90 e0       	ldi	r25, 0x00	; 0
     6f2:	08 96       	adiw	r24, 0x08	; 8
     6f4:	ef cc       	rjmp	.-1570   	; 0xd4 <tinyNeoPixel::setPixelColor(unsigned int, unsigned char, unsigned char, unsigned char) [clone .constprop.15]>
     6f6:	81 e1       	ldi	r24, 0x11	; 17
     6f8:	90 e0       	ldi	r25, 0x00	; 0
     6fa:	fc cf       	rjmp	.-8      	; 0x6f4 <setRightEyeLed(unsigned char, unsigned char, unsigned char, unsigned char)+0x8>

000006fc <setRightEye(unsigned char, unsigned char, unsigned char)>:
_Z11setRightEyehhh():
/home/adam/bsides-leeds-2026-badge/firmware/firmware.ino:294
    ledStrip.setPixelColor(ledIndex, red, green, blue);
  }
}

void setRightEye(uint8_t red, uint8_t green, uint8_t blue)
{
     6fc:	ff 92       	push	r15
     6fe:	0f 93       	push	r16
     700:	1f 93       	push	r17
     702:	cf 93       	push	r28
     704:	df 93       	push	r29
     706:	18 2f       	mov	r17, r24
     708:	06 2f       	mov	r16, r22
     70a:	f4 2e       	mov	r15, r20
     70c:	c9 e0       	ldi	r28, 0x09	; 9
     70e:	d0 e0       	ldi	r29, 0x00	; 0
setLeftEye():
/home/adam/bsides-leeds-2026-badge/firmware/firmware.ino:289
}

void setLeftEye(uint8_t red, uint8_t green, uint8_t blue, uint8_t offset = 0)
{
  for (uint8_t ledIndex = offset; ledIndex < 9 + offset; ++ledIndex) {
    ledStrip.setPixelColor(ledIndex, red, green, blue);
     710:	2f 2d       	mov	r18, r15
     712:	40 2f       	mov	r20, r16
     714:	61 2f       	mov	r22, r17
     716:	ce 01       	movw	r24, r28
     718:	dd dc       	rcall	.-1606   	; 0xd4 <tinyNeoPixel::setPixelColor(unsigned int, unsigned char, unsigned char, unsigned char) [clone .constprop.15]>
     71a:	21 96       	adiw	r28, 0x01	; 1
/home/adam/bsides-leeds-2026-badge/firmware/firmware.ino:288
  return 100;
}

void setLeftEye(uint8_t red, uint8_t green, uint8_t blue, uint8_t offset = 0)
{
  for (uint8_t ledIndex = offset; ledIndex < 9 + offset; ++ledIndex) {
     71c:	c2 31       	cpi	r28, 0x12	; 18
     71e:	d1 05       	cpc	r29, r1
     720:	b9 f7       	brne	.-18     	; 0x710 <setRightEye(unsigned char, unsigned char, unsigned char)+0x14>
_Z11setRightEyehhh():
/home/adam/bsides-leeds-2026-badge/firmware/firmware.ino:296
}

void setRightEye(uint8_t red, uint8_t green, uint8_t blue)
{
  setLeftEye(red, green, blue, 9);
}
     722:	df 91       	pop	r29
     724:	cf 91       	pop	r28
     726:	1f 91       	pop	r17
     728:	0f 91       	pop	r16
     72a:	ff 90       	pop	r15
     72c:	08 95       	ret

0000072e <setPlayerEye(unsigned char, RgbColor)>:
_Z12setPlayerEyeh8RgbColor():
/home/adam/bsides-leeds-2026-badge/firmware/firmware.ino:397
{
  return player == PLAYER_LEFT ? LEFT_PLAYER_MASK : RIGHT_PLAYER_MASK;
}

void setPlayerEye(uint8_t player, RgbColor color)
{
     72e:	ef 92       	push	r14
     730:	ff 92       	push	r15
     732:	1f 93       	push	r17
     734:	cf 93       	push	r28
     736:	df 93       	push	r29
     738:	c4 2f       	mov	r28, r20
     73a:	46 2f       	mov	r20, r22
/home/adam/bsides-leeds-2026-badge/firmware/firmware.ino:398
  if (player == PLAYER_LEFT) {
     73c:	81 11       	cpse	r24, r1
     73e:	16 c0       	rjmp	.+44     	; 0x76c <setPlayerEye(unsigned char, RgbColor)+0x3e>
     740:	16 2f       	mov	r17, r22
     742:	d5 2f       	mov	r29, r21
     744:	f1 2c       	mov	r15, r1
     746:	e1 2c       	mov	r14, r1
setLeftEye():
/home/adam/bsides-leeds-2026-badge/firmware/firmware.ino:289
}

void setLeftEye(uint8_t red, uint8_t green, uint8_t blue, uint8_t offset = 0)
{
  for (uint8_t ledIndex = offset; ledIndex < 9 + offset; ++ledIndex) {
    ledStrip.setPixelColor(ledIndex, red, green, blue);
     748:	21 2f       	mov	r18, r17
     74a:	4d 2f       	mov	r20, r29
     74c:	6c 2f       	mov	r22, r28
     74e:	c7 01       	movw	r24, r14
     750:	c1 dc       	rcall	.-1662   	; 0xd4 <tinyNeoPixel::setPixelColor(unsigned int, unsigned char, unsigned char, unsigned char) [clone .constprop.15]>
     752:	8f ef       	ldi	r24, 0xFF	; 255
     754:	e8 1a       	sub	r14, r24
     756:	f8 0a       	sbc	r15, r24
/home/adam/bsides-leeds-2026-badge/firmware/firmware.ino:288
  return 100;
}

void setLeftEye(uint8_t red, uint8_t green, uint8_t blue, uint8_t offset = 0)
{
  for (uint8_t ledIndex = offset; ledIndex < 9 + offset; ++ledIndex) {
     758:	89 e0       	ldi	r24, 0x09	; 9
     75a:	e8 16       	cp	r14, r24
     75c:	f1 04       	cpc	r15, r1
     75e:	a1 f7       	brne	.-24     	; 0x748 <setPlayerEye(unsigned char, RgbColor)+0x1a>
_Z12setPlayerEyeh8RgbColor():
/home/adam/bsides-leeds-2026-badge/firmware/firmware.ino:404
    setLeftEye(color.red, color.green, color.blue);
    return;
  }

  setRightEye(color.red, color.green, color.blue);
}
     760:	df 91       	pop	r29
     762:	cf 91       	pop	r28
     764:	1f 91       	pop	r17
     766:	ff 90       	pop	r15
     768:	ef 90       	pop	r14
     76a:	08 95       	ret
/home/adam/bsides-leeds-2026-badge/firmware/firmware.ino:403
  if (player == PLAYER_LEFT) {
    setLeftEye(color.red, color.green, color.blue);
    return;
  }

  setRightEye(color.red, color.green, color.blue);
     76c:	65 2f       	mov	r22, r21
     76e:	8c 2f       	mov	r24, r28
/home/adam/bsides-leeds-2026-badge/firmware/firmware.ino:404
}
     770:	df 91       	pop	r29
     772:	cf 91       	pop	r28
     774:	1f 91       	pop	r17
     776:	ff 90       	pop	r15
     778:	ef 90       	pop	r14
/home/adam/bsides-leeds-2026-badge/firmware/firmware.ino:403
  if (player == PLAYER_LEFT) {
    setLeftEye(color.red, color.green, color.blue);
    return;
  }

  setRightEye(color.red, color.green, color.blue);
     77a:	c0 cf       	rjmp	.-128    	; 0x6fc <setRightEye(unsigned char, unsigned char, unsigned char)>

0000077c <showFindSequenceProgressForPlayer(unsigned char, unsigned char const*, unsigned char)>:
_Z33showFindSequenceProgressForPlayerhPKhh():
/home/adam/bsides-leeds-2026-badge/firmware/firmware.ino:905

  ledStrip.show();
}

void showFindSequenceProgressForPlayer(uint8_t player, const uint8_t sequence[], uint8_t foundLength)
{
     77c:	df 92       	push	r13
     77e:	ef 92       	push	r14
     780:	ff 92       	push	r15
     782:	0f 93       	push	r16
     784:	1f 93       	push	r17
     786:	cf 93       	push	r28
     788:	df 93       	push	r29
     78a:	d8 2e       	mov	r13, r24
     78c:	d6 2f       	mov	r29, r22
     78e:	c7 2f       	mov	r28, r23
     790:	e4 2e       	mov	r14, r20
/home/adam/bsides-leeds-2026-badge/firmware/firmware.ino:906
  setPlayerEye(player, COLOR_OFF);
     792:	40 91 bd 9f 	lds	r20, 0x9FBD	; 0x809fbd <__bss_end+0x60cd>
     796:	50 91 be 9f 	lds	r21, 0x9FBE	; 0x809fbe <__bss_end+0x60ce>
     79a:	60 91 bf 9f 	lds	r22, 0x9FBF	; 0x809fbf <__bss_end+0x60cf>
     79e:	c7 df       	rcall	.-114    	; 0x72e <setPlayerEye(unsigned char, RgbColor)>
     7a0:	0d 2f       	mov	r16, r29
     7a2:	1c 2f       	mov	r17, r28
     7a4:	f1 2c       	mov	r15, r1
     7a6:	d0 e0       	ldi	r29, 0x00	; 0
     7a8:	c0 e0       	ldi	r28, 0x00	; 0
/home/adam/bsides-leeds-2026-badge/firmware/firmware.ino:908

  for (uint8_t sequenceIndex = 0; sequenceIndex < foundLength; ++sequenceIndex) {
     7aa:	ce 15       	cp	r28, r14
     7ac:	df 05       	cpc	r29, r15
     7ae:	79 f0       	breq	.+30     	; 0x7ce <showFindSequenceProgressForPlayer(unsigned char, unsigned char const*, unsigned char)+0x52>
setPlayerSequenceSlotColor():
/home/adam/bsides-leeds-2026-badge/firmware/firmware.ino:890
  ledStrip.setPixelColor(slotIndex, color.red, color.green, color.blue);
}

void setPlayerSequenceSlotColor(uint8_t player, uint8_t slotIndex, uint8_t colorIndex)
{
  setPlayerEyeLed(player, slotIndex, colorForIndex(colorIndex));
     7b0:	f8 01       	movw	r30, r16
     7b2:	81 91       	ld	r24, Z+
     7b4:	8f 01       	movw	r16, r30
     7b6:	7e df       	rcall	.-260    	; 0x6b4 <colorForIndex(unsigned char)>
     7b8:	47 2f       	mov	r20, r23
     7ba:	28 2f       	mov	r18, r24
setPlayerEyeLed():
/home/adam/bsides-leeds-2026-badge/firmware/firmware.ino:408
  setRightEye(color.red, color.green, color.blue);
}

void setPlayerEyeLed(uint8_t player, uint8_t ledIndex, RgbColor color)
{
  if (player == PLAYER_LEFT) {
     7bc:	d1 10       	cpse	r13, r1
     7be:	04 c0       	rjmp	.+8      	; 0x7c8 <showFindSequenceProgressForPlayer(unsigned char, unsigned char const*, unsigned char)+0x4c>
/home/adam/bsides-leeds-2026-badge/firmware/firmware.ino:409
    ledStrip.setPixelColor(ledIndex, color.red, color.green, color.blue);
     7c0:	ce 01       	movw	r24, r28
     7c2:	88 dc       	rcall	.-1776   	; 0xd4 <tinyNeoPixel::setPixelColor(unsigned int, unsigned char, unsigned char, unsigned char) [clone .constprop.15]>
     7c4:	21 96       	adiw	r28, 0x01	; 1
     7c6:	f1 cf       	rjmp	.-30     	; 0x7aa <showFindSequenceProgressForPlayer(unsigned char, unsigned char const*, unsigned char)+0x2e>
/home/adam/bsides-leeds-2026-badge/firmware/firmware.ino:411
  } else {
    setRightEyeLed(ledIndex, color.red, color.green, color.blue);
     7c8:	8c 2f       	mov	r24, r28
     7ca:	90 df       	rcall	.-224    	; 0x6ec <setRightEyeLed(unsigned char, unsigned char, unsigned char, unsigned char)>
     7cc:	fb cf       	rjmp	.-10     	; 0x7c4 <showFindSequenceProgressForPlayer(unsigned char, unsigned char const*, unsigned char)+0x48>
_Z33showFindSequenceProgressForPlayerhPKhh():
/home/adam/bsides-leeds-2026-badge/firmware/firmware.ino:913
  for (uint8_t sequenceIndex = 0; sequenceIndex < foundLength; ++sequenceIndex) {
    setPlayerSequenceSlotColor(player, sequenceIndex, sequence[sequenceIndex]);
  }

  ledStrip.show();
}
     7ce:	df 91       	pop	r29
     7d0:	cf 91       	pop	r28
     7d2:	1f 91       	pop	r17
     7d4:	0f 91       	pop	r16
     7d6:	ff 90       	pop	r15
     7d8:	ef 90       	pop	r14
     7da:	df 90       	pop	r13
/home/adam/bsides-leeds-2026-badge/firmware/firmware.ino:912

  for (uint8_t sequenceIndex = 0; sequenceIndex < foundLength; ++sequenceIndex) {
    setPlayerSequenceSlotColor(player, sequenceIndex, sequence[sequenceIndex]);
  }

  ledStrip.show();
     7dc:	37 cd       	rjmp	.-1426   	; 0x24c <tinyNeoPixel::show() [clone .constprop.17]>

000007de <disableRebootOnButton()>:
_Z21disableRebootOnButtonv():
/home/adam/bsides-leeds-2026-badge/firmware/firmware.ino:200
  rebootOnButtonPress = true;
}

void disableRebootOnButton()
{
  PORTA.PIN3CTRL = PORT_PULLUPEN_bm;
     7de:	88 e0       	ldi	r24, 0x08	; 8
     7e0:	80 93 13 04 	sts	0x0413, r24	; 0x800413 <digital_pin_to_bit_mask+0x7f643b>
/home/adam/bsides-leeds-2026-badge/firmware/firmware.ino:201
  rebootOnButtonPress = false;
     7e4:	10 92 02 3e 	sts	0x3E02, r1	; 0x803e02 <__data_end>
/home/adam/bsides-leeds-2026-badge/firmware/firmware.ino:202
}
     7e8:	08 95       	ret

000007ea <enableRebootOnButton()>:
_Z20enableRebootOnButtonv():
/home/adam/bsides-leeds-2026-badge/firmware/firmware.ino:194
  RTC.CLKSEL = RTC_CLKSEL_INT1K_gc;
}

void enableRebootOnButton()
{
  PORTA.PIN3CTRL = PORT_PULLUPEN_bm | PORT_ISC_LEVEL_gc;
     7ea:	8d e0       	ldi	r24, 0x0D	; 13
     7ec:	80 93 13 04 	sts	0x0413, r24	; 0x800413 <digital_pin_to_bit_mask+0x7f643b>
/home/adam/bsides-leeds-2026-badge/firmware/firmware.ino:195
  rebootOnButtonPress = true;
     7f0:	81 e0       	ldi	r24, 0x01	; 1
     7f2:	80 93 02 3e 	sts	0x3E02, r24	; 0x803e02 <__data_end>
/home/adam/bsides-leeds-2026-badge/firmware/firmware.ino:196
}
     7f6:	08 95       	ret

000007f8 <setAllLeds(unsigned char, unsigned char, unsigned char, bool)>:
_Z10setAllLedshhhb():
/home/adam/bsides-leeds-2026-badge/firmware/firmware.ino:148
    ptc_node_set_thresholds(&touchButtons[buttonIndex], 80, 10);
  }
}

void setAllLeds(uint8_t red, uint8_t green, uint8_t blue, bool show = false)
{
     7f8:	ef 92       	push	r14
     7fa:	ff 92       	push	r15
     7fc:	0f 93       	push	r16
     7fe:	1f 93       	push	r17
     800:	cf 93       	push	r28
     802:	df 93       	push	r29
     804:	08 2f       	mov	r16, r24
     806:	f6 2e       	mov	r15, r22
     808:	e4 2e       	mov	r14, r20
     80a:	12 2f       	mov	r17, r18
     80c:	d0 e0       	ldi	r29, 0x00	; 0
     80e:	c0 e0       	ldi	r28, 0x00	; 0
/home/adam/bsides-leeds-2026-badge/firmware/firmware.ino:150
  for (uint8_t ledIndex = 0; ledIndex < NUM_LEDS; ++ledIndex) {
    ledStrip.setPixelColor(ledIndex, red, green, blue);
     810:	2e 2d       	mov	r18, r14
     812:	4f 2d       	mov	r20, r15
     814:	60 2f       	mov	r22, r16
     816:	ce 01       	movw	r24, r28
     818:	5d dc       	rcall	.-1862   	; 0xd4 <tinyNeoPixel::setPixelColor(unsigned int, unsigned char, unsigned char, unsigned char) [clone .constprop.15]>
     81a:	21 96       	adiw	r28, 0x01	; 1
/home/adam/bsides-leeds-2026-badge/firmware/firmware.ino:149
  }
}

void setAllLeds(uint8_t red, uint8_t green, uint8_t blue, bool show = false)
{
  for (uint8_t ledIndex = 0; ledIndex < NUM_LEDS; ++ledIndex) {
     81c:	c2 31       	cpi	r28, 0x12	; 18
     81e:	d1 05       	cpc	r29, r1
     820:	b9 f7       	brne	.-18     	; 0x810 <setAllLeds(unsigned char, unsigned char, unsigned char, bool)+0x18>
/home/adam/bsides-leeds-2026-badge/firmware/firmware.ino:153
    ledStrip.setPixelColor(ledIndex, red, green, blue);
  }

  if (show) {
     822:	11 23       	and	r17, r17
     824:	39 f0       	breq	.+14     	; 0x834 <setAllLeds(unsigned char, unsigned char, unsigned char, bool)+0x3c>
/home/adam/bsides-leeds-2026-badge/firmware/firmware.ino:156
    ledStrip.show();
  }
}
     826:	df 91       	pop	r29
     828:	cf 91       	pop	r28
     82a:	1f 91       	pop	r17
     82c:	0f 91       	pop	r16
     82e:	ff 90       	pop	r15
     830:	ef 90       	pop	r14
/home/adam/bsides-leeds-2026-badge/firmware/firmware.ino:154
  for (uint8_t ledIndex = 0; ledIndex < NUM_LEDS; ++ledIndex) {
    ledStrip.setPixelColor(ledIndex, red, green, blue);
  }

  if (show) {
    ledStrip.show();
     832:	0c cd       	rjmp	.-1512   	; 0x24c <tinyNeoPixel::show() [clone .constprop.17]>
/home/adam/bsides-leeds-2026-badge/firmware/firmware.ino:156
  }
}
     834:	df 91       	pop	r29
     836:	cf 91       	pop	r28
     838:	1f 91       	pop	r17
     83a:	0f 91       	pop	r16
     83c:	ff 90       	pop	r15
     83e:	ef 90       	pop	r14
     840:	08 95       	ret

00000842 <setAllLeds(RgbColor, bool)>:
_Z10setAllLeds8RgbColorb():
/home/adam/bsides-leeds-2026-badge/firmware/firmware.ino:159

void setAllLeds(RgbColor color, bool show = false)
{
     842:	96 2f       	mov	r25, r22
     844:	67 2f       	mov	r22, r23
     846:	24 2f       	mov	r18, r20
/home/adam/bsides-leeds-2026-badge/firmware/firmware.ino:160
  setAllLeds(color.red, color.green, color.blue, show);
     848:	48 2f       	mov	r20, r24
     84a:	89 2f       	mov	r24, r25
     84c:	d5 cf       	rjmp	.-86     	; 0x7f8 <setAllLeds(unsigned char, unsigned char, unsigned char, bool)>

0000084e <loopingEyes(unsigned int, unsigned char, unsigned char, unsigned char) [clone .constprop.7]>:
_Z11loopingEyesjhhh.constprop.7():
/home/adam/bsides-leeds-2026-badge/firmware/firmware.ino:274
  }

  return elapsedMs;
}

uint8_t loopingEyes(uint16_t step, uint8_t red, uint8_t green, uint8_t blue)
     84e:	0f 93       	push	r16
     850:	1f 93       	push	r17
     852:	cf 93       	push	r28
     854:	df 93       	push	r29
     856:	ec 01       	movw	r28, r24
     858:	16 2f       	mov	r17, r22
     85a:	04 2f       	mov	r16, r20
/home/adam/bsides-leeds-2026-badge/firmware/firmware.ino:276
{
  setAllLeds(COLOR_OFF);
     85c:	60 91 bd 9f 	lds	r22, 0x9FBD	; 0x809fbd <__bss_end+0x60cd>
     860:	70 91 be 9f 	lds	r23, 0x9FBE	; 0x809fbe <__bss_end+0x60ce>
     864:	80 91 bf 9f 	lds	r24, 0x9FBF	; 0x809fbf <__bss_end+0x60cf>
     868:	40 e0       	ldi	r20, 0x00	; 0
     86a:	eb df       	rcall	.-42     	; 0x842 <setAllLeds(RgbColor, bool)>
/home/adam/bsides-leeds-2026-badge/firmware/firmware.ino:278

  const uint8_t ledIndex = step % 9;
     86c:	ce 01       	movw	r24, r28
     86e:	69 e0       	ldi	r22, 0x09	; 9
     870:	70 e0       	ldi	r23, 0x00	; 0
     872:	4f db       	rcall	.-2402   	; 0xffffff12 <__eeprom_end+0xff7eff12>
     874:	ec 01       	movw	r28, r24
/home/adam/bsides-leeds-2026-badge/firmware/firmware.ino:279
  ledStrip.setPixelColor(ledIndex, red, green, blue);
     876:	20 2f       	mov	r18, r16
     878:	40 e0       	ldi	r20, 0x00	; 0
     87a:	61 2f       	mov	r22, r17
     87c:	2b dc       	rcall	.-1962   	; 0xd4 <tinyNeoPixel::setPixelColor(unsigned int, unsigned char, unsigned char, unsigned char) [clone .constprop.15]>
/home/adam/bsides-leeds-2026-badge/firmware/firmware.ino:280
  ledStrip.setPixelColor(17 - ledIndex, red, green, blue);
     87e:	20 2f       	mov	r18, r16
     880:	40 e0       	ldi	r20, 0x00	; 0
     882:	61 2f       	mov	r22, r17
     884:	81 e1       	ldi	r24, 0x11	; 17
     886:	90 e0       	ldi	r25, 0x00	; 0
     888:	8c 1b       	sub	r24, r28
     88a:	9d 0b       	sbc	r25, r29
     88c:	23 dc       	rcall	.-1978   	; 0xd4 <tinyNeoPixel::setPixelColor(unsigned int, unsigned char, unsigned char, unsigned char) [clone .constprop.15]>
/home/adam/bsides-leeds-2026-badge/firmware/firmware.ino:281
  ledStrip.show();
     88e:	de dc       	rcall	.-1604   	; 0x24c <tinyNeoPixel::show() [clone .constprop.17]>
/home/adam/bsides-leeds-2026-badge/firmware/firmware.ino:284

  return 100;
}
     890:	84 e6       	ldi	r24, 0x64	; 100
     892:	df 91       	pop	r29
     894:	cf 91       	pop	r28
     896:	1f 91       	pop	r17
     898:	0f 91       	pop	r16
     89a:	08 95       	ret

0000089c <knightRider(unsigned int, unsigned char, unsigned char, unsigned char) [clone .constprop.2]>:
_Z11knightRiderjhhh.constprop.2():
/home/adam/bsides-leeds-2026-badge/firmware/firmware.ino:1077
  13, 16,
  14, 15,
  15, 255,
};

uint8_t knightRider(uint16_t step, uint8_t red, uint8_t green, uint8_t blue)
     89c:	0f 93       	push	r16
     89e:	1f 93       	push	r17
     8a0:	cf 93       	push	r28
     8a2:	df 93       	push	r29
     8a4:	16 2f       	mov	r17, r22
     8a6:	04 2f       	mov	r16, r20
/home/adam/bsides-leeds-2026-badge/firmware/firmware.ino:1079
{
  uint8_t position = step % 20;
     8a8:	64 e1       	ldi	r22, 0x14	; 20
     8aa:	70 e0       	ldi	r23, 0x00	; 0
     8ac:	32 db       	rcall	.-2460   	; 0xffffff12 <__eeprom_end+0xff7eff12>
     8ae:	28 2f       	mov	r18, r24
/home/adam/bsides-leeds-2026-badge/firmware/firmware.ino:1080
  if (position > 10) {
     8b0:	8b 30       	cpi	r24, 0x0B	; 11
     8b2:	10 f0       	brcs	.+4      	; 0x8b8 <knightRider(unsigned int, unsigned char, unsigned char, unsigned char) [clone .constprop.2]+0x1c>
/home/adam/bsides-leeds-2026-badge/firmware/firmware.ino:1081
    position = 20 - position;
     8b4:	24 e1       	ldi	r18, 0x14	; 20
     8b6:	28 1b       	sub	r18, r24
/home/adam/bsides-leeds-2026-badge/firmware/firmware.ino:1084
  }

  const uint8_t tableIndex = position * 2;
     8b8:	22 0f       	add	r18, r18
/home/adam/bsides-leeds-2026-badge/firmware/firmware.ino:1085
  const uint8_t firstLed = pgm_read_byte(&KNIGHT_RIDER_LEDS[tableIndex]);
     8ba:	30 e0       	ldi	r19, 0x00	; 0
     8bc:	f9 01       	movw	r30, r18
     8be:	e8 5a       	subi	r30, 0xA8	; 168
     8c0:	ff 4f       	sbci	r31, 0xFF	; 255
     8c2:	d4 91       	lpm	r29, Z
/home/adam/bsides-leeds-2026-badge/firmware/firmware.ino:1086
  const uint8_t secondLed = pgm_read_byte(&KNIGHT_RIDER_LEDS[tableIndex + 1]);
     8c4:	f9 01       	movw	r30, r18
     8c6:	e7 5a       	subi	r30, 0xA7	; 167
     8c8:	ff 4f       	sbci	r31, 0xFF	; 255
     8ca:	c4 91       	lpm	r28, Z
/home/adam/bsides-leeds-2026-badge/firmware/firmware.ino:1088

  setAllLeds(COLOR_OFF);
     8cc:	60 91 bd 9f 	lds	r22, 0x9FBD	; 0x809fbd <__bss_end+0x60cd>
     8d0:	70 91 be 9f 	lds	r23, 0x9FBE	; 0x809fbe <__bss_end+0x60ce>
     8d4:	80 91 bf 9f 	lds	r24, 0x9FBF	; 0x809fbf <__bss_end+0x60cf>
     8d8:	40 e0       	ldi	r20, 0x00	; 0
     8da:	b3 df       	rcall	.-154    	; 0x842 <setAllLeds(RgbColor, bool)>
/home/adam/bsides-leeds-2026-badge/firmware/firmware.ino:1089
  ledStrip.setPixelColor(firstLed, red, green, blue);
     8dc:	20 e0       	ldi	r18, 0x00	; 0
     8de:	40 2f       	mov	r20, r16
     8e0:	61 2f       	mov	r22, r17
     8e2:	8d 2f       	mov	r24, r29
     8e4:	90 e0       	ldi	r25, 0x00	; 0
     8e6:	f6 db       	rcall	.-2068   	; 0xd4 <tinyNeoPixel::setPixelColor(unsigned int, unsigned char, unsigned char, unsigned char) [clone .constprop.15]>
/home/adam/bsides-leeds-2026-badge/firmware/firmware.ino:1091

  if (secondLed != 255) {
     8e8:	cf 3f       	cpi	r28, 0xFF	; 255
     8ea:	31 f0       	breq	.+12     	; 0x8f8 <knightRider(unsigned int, unsigned char, unsigned char, unsigned char) [clone .constprop.2]+0x5c>
/home/adam/bsides-leeds-2026-badge/firmware/firmware.ino:1092
    ledStrip.setPixelColor(secondLed, red, green, blue);
     8ec:	20 e0       	ldi	r18, 0x00	; 0
     8ee:	40 2f       	mov	r20, r16
     8f0:	61 2f       	mov	r22, r17
     8f2:	8c 2f       	mov	r24, r28
     8f4:	90 e0       	ldi	r25, 0x00	; 0
     8f6:	ee db       	rcall	.-2084   	; 0xd4 <tinyNeoPixel::setPixelColor(unsigned int, unsigned char, unsigned char, unsigned char) [clone .constprop.15]>
/home/adam/bsides-leeds-2026-badge/firmware/firmware.ino:1095
  }

  ledStrip.show();
     8f8:	a9 dc       	rcall	.-1710   	; 0x24c <tinyNeoPixel::show() [clone .constprop.17]>
/home/adam/bsides-leeds-2026-badge/firmware/firmware.ino:1097
  return 100;
}
     8fa:	84 e6       	ldi	r24, 0x64	; 100
     8fc:	df 91       	pop	r29
     8fe:	cf 91       	pop	r28
     900:	1f 91       	pop	r17
     902:	0f 91       	pop	r16
     904:	08 95       	ret

00000906 <showFindSequenceProgress(unsigned char const*, unsigned char)>:
_Z24showFindSequenceProgressPKhh():
/home/adam/bsides-leeds-2026-badge/firmware/firmware.ino:894
{
  setPlayerEyeLed(player, slotIndex, colorForIndex(colorIndex));
}

void showFindSequenceProgress(const uint8_t sequence[], uint8_t foundLength)
{
     906:	ff 92       	push	r15
     908:	0f 93       	push	r16
     90a:	1f 93       	push	r17
     90c:	cf 93       	push	r28
     90e:	df 93       	push	r29
     910:	f8 2e       	mov	r15, r24
     912:	c9 2f       	mov	r28, r25
     914:	d6 2f       	mov	r29, r22
/home/adam/bsides-leeds-2026-badge/firmware/firmware.ino:895
  setAllLeds(COLOR_OFF);
     916:	60 91 bd 9f 	lds	r22, 0x9FBD	; 0x809fbd <__bss_end+0x60cd>
     91a:	70 91 be 9f 	lds	r23, 0x9FBE	; 0x809fbe <__bss_end+0x60ce>
     91e:	80 91 bf 9f 	lds	r24, 0x9FBF	; 0x809fbf <__bss_end+0x60cf>
     922:	40 e0       	ldi	r20, 0x00	; 0
     924:	8e df       	rcall	.-228    	; 0x842 <setAllLeds(RgbColor, bool)>
     926:	0f 2d       	mov	r16, r15
     928:	1c 2f       	mov	r17, r28
/home/adam/bsides-leeds-2026-badge/firmware/firmware.ino:897

  for (uint8_t sequenceIndex = 0; sequenceIndex < foundLength; ++sequenceIndex) {
     92a:	c0 e0       	ldi	r28, 0x00	; 0
     92c:	cd 17       	cp	r28, r29
     92e:	39 f0       	breq	.+14     	; 0x93e <showFindSequenceProgress(unsigned char const*, unsigned char)+0x38>
/home/adam/bsides-leeds-2026-badge/firmware/firmware.ino:898
    setSequenceSlotColor(sequenceIndex, sequence[sequenceIndex]);
     930:	f8 01       	movw	r30, r16
     932:	61 91       	ld	r22, Z+
     934:	8f 01       	movw	r16, r30
     936:	8c 2f       	mov	r24, r28
     938:	cf de       	rcall	.-610    	; 0x6d8 <setSequenceSlotColor(unsigned char, unsigned char)>
/home/adam/bsides-leeds-2026-badge/firmware/firmware.ino:897

void showFindSequenceProgress(const uint8_t sequence[], uint8_t foundLength)
{
  setAllLeds(COLOR_OFF);

  for (uint8_t sequenceIndex = 0; sequenceIndex < foundLength; ++sequenceIndex) {
     93a:	cf 5f       	subi	r28, 0xFF	; 255
     93c:	f7 cf       	rjmp	.-18     	; 0x92c <showFindSequenceProgress(unsigned char const*, unsigned char)+0x26>
/home/adam/bsides-leeds-2026-badge/firmware/firmware.ino:902
    setSequenceSlotColor(sequenceIndex, sequence[sequenceIndex]);
  }

  ledStrip.show();
}
     93e:	df 91       	pop	r29
     940:	cf 91       	pop	r28
     942:	1f 91       	pop	r17
     944:	0f 91       	pop	r16
     946:	ff 90       	pop	r15
/home/adam/bsides-leeds-2026-badge/firmware/firmware.ino:901

  for (uint8_t sequenceIndex = 0; sequenceIndex < foundLength; ++sequenceIndex) {
    setSequenceSlotColor(sequenceIndex, sequence[sequenceIndex]);
  }

  ledStrip.show();
     948:	81 cc       	rjmp	.-1790   	; 0x24c <tinyNeoPixel::show() [clone .constprop.17]>

0000094a <getPressedTouchMask()>:
_Z19getPressedTouchMaskv():
/home/adam/bsides-leeds-2026-badge/firmware/firmware.ino:115
  return nextRandomByte() & 0x07;
}


uint8_t getPressedTouchMask()
{
     94a:	e5 e4       	ldi	r30, 0x45	; 69
     94c:	fe e3       	ldi	r31, 0x3E	; 62
     94e:	30 e0       	ldi	r19, 0x00	; 0
     950:	20 e0       	ldi	r18, 0x00	; 0
/home/adam/bsides-leeds-2026-badge/firmware/firmware.ino:116
  uint8_t pressedMask = 0;
     952:	80 e0       	ldi	r24, 0x00	; 0
/home/adam/bsides-leeds-2026-badge/firmware/firmware.ino:120

  for (uint8_t buttonIndex = 0; buttonIndex < NUM_TOUCH_BUTTONS; ++buttonIndex) {
    if (ptc_get_node_touched(&touchButtons[buttonIndex])) {
      pressedMask |= (1 << buttonIndex);
     954:	41 e0       	ldi	r20, 0x01	; 1
     956:	50 e0       	ldi	r21, 0x00	; 0
ptc_get_node_touched():
/home/adam/.arduino15/packages/megaTinyCore/hardware/megaavr/2.6.11/libraries/PTC/src/ptc.h:252
inline uint8_t ptc_get_node_touched(cap_sensor_t *node) {
  if (node == NULL) {
    return 0x00;
  }

  if (node->stateMachine & (PTC_SM_TOUCH_DETECT | PTC_SM_TOUCH_OUT_FLT)) {
     958:	95 89       	ldd	r25, Z+21	; 0x15
     95a:	90 76       	andi	r25, 0x60	; 96
     95c:	39 f0       	breq	.+14     	; 0x96c <getPressedTouchMask()+0x22>
_Z19getPressedTouchMaskv():
/home/adam/bsides-leeds-2026-badge/firmware/firmware.ino:120
     95e:	ba 01       	movw	r22, r20
     960:	02 2e       	mov	r0, r18
     962:	01 c0       	rjmp	.+2      	; 0x966 <getPressedTouchMask()+0x1c>
     964:	66 0f       	add	r22, r22
     966:	0a 94       	dec	r0
     968:	ea f7       	brpl	.-6      	; 0x964 <getPressedTouchMask()+0x1a>
     96a:	86 2b       	or	r24, r22
     96c:	2f 5f       	subi	r18, 0xFF	; 255
     96e:	3f 4f       	sbci	r19, 0xFF	; 255
     970:	77 96       	adiw	r30, 0x17	; 23
/home/adam/bsides-leeds-2026-badge/firmware/firmware.ino:118

uint8_t getPressedTouchMask()
{
  uint8_t pressedMask = 0;

  for (uint8_t buttonIndex = 0; buttonIndex < NUM_TOUCH_BUTTONS; ++buttonIndex) {
     972:	26 30       	cpi	r18, 0x06	; 6
     974:	31 05       	cpc	r19, r1
     976:	81 f7       	brne	.-32     	; 0x958 <getPressedTouchMask()+0xe>
/home/adam/bsides-leeds-2026-badge/firmware/firmware.ino:125
      pressedMask |= (1 << buttonIndex);
    }
  }

  return pressedMask;
}
     978:	08 95       	ret

0000097a <showTouchedPads()>:
_Z15showTouchedPadsv():
/home/adam/bsides-leeds-2026-badge/firmware/firmware.ino:304
{
  ledStrip.setPixelColor(ledIndex == 0 ? 17 : ledIndex + 8, red, green, blue);
}

void showTouchedPads()
{
     97a:	ef 92       	push	r14
     97c:	ff 92       	push	r15
     97e:	0f 93       	push	r16
     980:	1f 93       	push	r17
     982:	cf 93       	push	r28
     984:	df 93       	push	r29
/home/adam/bsides-leeds-2026-badge/firmware/firmware.ino:305
  const uint8_t pressedMask = getPressedTouchMask();
     986:	e1 df       	rcall	.-62     	; 0x94a <getPressedTouchMask()>
     988:	c8 2f       	mov	r28, r24
/home/adam/bsides-leeds-2026-badge/firmware/firmware.ino:307

  if (pressedMask & (LEFT_BLUE_MASK | LEFT_RED_MASK | LEFT_GREEN_MASK)) {
     98a:	87 70       	andi	r24, 0x07	; 7
     98c:	c9 f0       	breq	.+50     	; 0x9c0 <showTouchedPads()+0x46>
/home/adam/bsides-leeds-2026-badge/firmware/firmware.ino:308
    setLeftEye(
     98e:	e1 2c       	mov	r14, r1
     990:	c0 ff       	sbrs	r28, 0
     992:	02 c0       	rjmp	.+4      	; 0x998 <showTouchedPads()+0x1e>
     994:	94 e1       	ldi	r25, 0x14	; 20
     996:	e9 2e       	mov	r14, r25
     998:	f1 2c       	mov	r15, r1
     99a:	c2 ff       	sbrs	r28, 2
     99c:	02 c0       	rjmp	.+4      	; 0x9a2 <showTouchedPads()+0x28>
     99e:	84 e1       	ldi	r24, 0x14	; 20
     9a0:	f8 2e       	mov	r15, r24
     9a2:	d0 e0       	ldi	r29, 0x00	; 0
     9a4:	c1 fd       	sbrc	r28, 1
     9a6:	d4 e1       	ldi	r29, 0x14	; 20
     9a8:	10 e0       	ldi	r17, 0x00	; 0
     9aa:	00 e0       	ldi	r16, 0x00	; 0
setLeftEye():
/home/adam/bsides-leeds-2026-badge/firmware/firmware.ino:289
}

void setLeftEye(uint8_t red, uint8_t green, uint8_t blue, uint8_t offset = 0)
{
  for (uint8_t ledIndex = offset; ledIndex < 9 + offset; ++ledIndex) {
    ledStrip.setPixelColor(ledIndex, red, green, blue);
     9ac:	2e 2d       	mov	r18, r14
     9ae:	4f 2d       	mov	r20, r15
     9b0:	6d 2f       	mov	r22, r29
     9b2:	c8 01       	movw	r24, r16
     9b4:	8f db       	rcall	.-2274   	; 0xd4 <tinyNeoPixel::setPixelColor(unsigned int, unsigned char, unsigned char, unsigned char) [clone .constprop.15]>
     9b6:	0f 5f       	subi	r16, 0xFF	; 255
     9b8:	1f 4f       	sbci	r17, 0xFF	; 255
/home/adam/bsides-leeds-2026-badge/firmware/firmware.ino:288
  return 100;
}

void setLeftEye(uint8_t red, uint8_t green, uint8_t blue, uint8_t offset = 0)
{
  for (uint8_t ledIndex = offset; ledIndex < 9 + offset; ++ledIndex) {
     9ba:	09 30       	cpi	r16, 0x09	; 9
     9bc:	11 05       	cpc	r17, r1
     9be:	b1 f7       	brne	.-20     	; 0x9ac <showTouchedPads()+0x32>
_Z15showTouchedPadsv():
/home/adam/bsides-leeds-2026-badge/firmware/firmware.ino:315
      (pressedMask & LEFT_GREEN_MASK) ? 20 : 0,
      (pressedMask & LEFT_BLUE_MASK) ? 20 : 0
    );
  }

  if (pressedMask & (RIGHT_BLUE_MASK | RIGHT_RED_MASK | RIGHT_GREEN_MASK)) {
     9c0:	8c 2f       	mov	r24, r28
     9c2:	88 73       	andi	r24, 0x38	; 56
     9c4:	51 f0       	breq	.+20     	; 0x9da <showTouchedPads()+0x60>
/home/adam/bsides-leeds-2026-badge/firmware/firmware.ino:316
    setRightEye(
     9c6:	40 e0       	ldi	r20, 0x00	; 0
     9c8:	c5 fd       	sbrc	r28, 5
     9ca:	44 e1       	ldi	r20, 0x14	; 20
     9cc:	64 e1       	ldi	r22, 0x14	; 20
     9ce:	c3 ff       	sbrs	r28, 3
     9d0:	60 e0       	ldi	r22, 0x00	; 0
     9d2:	80 e0       	ldi	r24, 0x00	; 0
     9d4:	c4 fd       	sbrc	r28, 4
     9d6:	84 e1       	ldi	r24, 0x14	; 20
     9d8:	91 de       	rcall	.-734    	; 0x6fc <setRightEye(unsigned char, unsigned char, unsigned char)>
/home/adam/bsides-leeds-2026-badge/firmware/firmware.ino:324
      (pressedMask & RIGHT_BLUE_MASK) ? 20 : 0
    );
  }

  ledStrip.show();
}
     9da:	df 91       	pop	r29
     9dc:	cf 91       	pop	r28
     9de:	1f 91       	pop	r17
     9e0:	0f 91       	pop	r16
     9e2:	ff 90       	pop	r15
     9e4:	ef 90       	pop	r14
/home/adam/bsides-leeds-2026-badge/firmware/firmware.ino:323
      (pressedMask & RIGHT_GREEN_MASK) ? 20 : 0,
      (pressedMask & RIGHT_BLUE_MASK) ? 20 : 0
    );
  }

  ledStrip.show();
     9e6:	32 cc       	rjmp	.-1948   	; 0x24c <tinyNeoPixel::show() [clone .constprop.17]>

000009e8 <nextRandomByte()>:
_Z14nextRandomBytev():
/home/adam/bsides-leeds-2026-badge/firmware/firmware.ino:78
  }
}

uint8_t nextRandomByte()
{
  const bool bit = randomState & 1;
     9e8:	20 91 00 3e 	lds	r18, 0x3E00	; 0x803e00 <__DATA_REGION_ORIGIN__>
     9ec:	30 91 01 3e 	lds	r19, 0x3E01	; 0x803e01 <__DATA_REGION_ORIGIN__+0x1>
/home/adam/bsides-leeds-2026-badge/firmware/firmware.ino:79
  randomState >>= 1;
     9f0:	c9 01       	movw	r24, r18
     9f2:	96 95       	lsr	r25
     9f4:	87 95       	ror	r24
/home/adam/bsides-leeds-2026-badge/firmware/firmware.ino:81

  if (bit) {
     9f6:	20 fd       	sbrc	r18, 0
     9f8:	07 c0       	rjmp	.+14     	; 0xa08 <nextRandomByte()+0x20>
/home/adam/bsides-leeds-2026-badge/firmware/firmware.ino:82
    randomState ^= 0xB400u;
     9fa:	80 93 00 3e 	sts	0x3E00, r24	; 0x803e00 <__DATA_REGION_ORIGIN__>
     9fe:	90 93 01 3e 	sts	0x3E01, r25	; 0x803e01 <__DATA_REGION_ORIGIN__+0x1>
/home/adam/bsides-leeds-2026-badge/firmware/firmware.ino:86
  }

  return (uint8_t)randomState;
}
     a02:	80 91 00 3e 	lds	r24, 0x3E00	; 0x803e00 <__DATA_REGION_ORIGIN__>
     a06:	08 95       	ret
/home/adam/bsides-leeds-2026-badge/firmware/firmware.ino:82
{
  const bool bit = randomState & 1;
  randomState >>= 1;

  if (bit) {
    randomState ^= 0xB400u;
     a08:	24 eb       	ldi	r18, 0xB4	; 180
     a0a:	92 27       	eor	r25, r18
     a0c:	f6 cf       	rjmp	.-20     	; 0x9fa <nextRandomByte()+0x12>

00000a0e <createRandomSequence(unsigned char*, unsigned char)>:
_Z20createRandomSequencePhh():
/home/adam/bsides-leeds-2026-badge/firmware/firmware.ino:646
}

static const uint8_t NUM_SEQUENCE_LEVELS = 10;

void createRandomSequence(uint8_t sequence[], uint8_t sequenceLength)
{
     a0e:	0f 93       	push	r16
     a10:	1f 93       	push	r17
     a12:	cf 93       	push	r28
     a14:	df 93       	push	r29
     a16:	16 2f       	mov	r17, r22
     a18:	08 2f       	mov	r16, r24
     a1a:	ec 01       	movw	r28, r24
randomColorIndex():
/home/adam/bsides-leeds-2026-badge/firmware/firmware.ino:92

uint8_t randomColorIndex()
{
  uint8_t value;
  do {
    value = nextRandomByte() & 0x03;
     a1c:	e5 df       	rcall	.-54     	; 0x9e8 <nextRandomByte()>
     a1e:	83 70       	andi	r24, 0x03	; 3
/home/adam/bsides-leeds-2026-badge/firmware/firmware.ino:93
  } while (value > 2);
     a20:	83 30       	cpi	r24, 0x03	; 3
     a22:	e1 f3       	breq	.-8      	; 0xa1c <createRandomSequence(unsigned char*, unsigned char)+0xe>
_Z20createRandomSequencePhh():
/home/adam/bsides-leeds-2026-badge/firmware/firmware.ino:648
static const uint8_t NUM_SEQUENCE_LEVELS = 10;

void createRandomSequence(uint8_t sequence[], uint8_t sequenceLength)
{
  for (uint8_t sequenceIndex = 0; sequenceIndex < sequenceLength; ++sequenceIndex) {
    sequence[sequenceIndex] = randomColorIndex();
     a24:	89 93       	st	Y+, r24
/home/adam/bsides-leeds-2026-badge/firmware/firmware.ino:647

static const uint8_t NUM_SEQUENCE_LEVELS = 10;

void createRandomSequence(uint8_t sequence[], uint8_t sequenceLength)
{
  for (uint8_t sequenceIndex = 0; sequenceIndex < sequenceLength; ++sequenceIndex) {
     a26:	8c 2f       	mov	r24, r28
     a28:	80 1b       	sub	r24, r16
     a2a:	81 17       	cp	r24, r17
     a2c:	b8 f3       	brcs	.-18     	; 0xa1c <createRandomSequence(unsigned char*, unsigned char)+0xe>
/home/adam/bsides-leeds-2026-badge/firmware/firmware.ino:650
    sequence[sequenceIndex] = randomColorIndex();
  }
}
     a2e:	df 91       	pop	r29
     a30:	cf 91       	pop	r28
     a32:	1f 91       	pop	r17
     a34:	0f 91       	pop	r16
     a36:	08 95       	ret

00000a38 <createDifferentRandomSequence(unsigned char const*, unsigned char*, unsigned char)>:
_Z29createDifferentRandomSequencePKhPhh():
/home/adam/bsides-leeds-2026-badge/firmware/firmware.ino:668
void createDifferentRandomSequence(
  const uint8_t existingSequence[],
  uint8_t newSequence[],
  uint8_t sequenceLength
)
{
     a38:	ff 92       	push	r15
     a3a:	0f 93       	push	r16
     a3c:	1f 93       	push	r17
     a3e:	cf 93       	push	r28
     a40:	df 93       	push	r29
     a42:	08 2f       	mov	r16, r24
     a44:	f9 2e       	mov	r15, r25
     a46:	eb 01       	movw	r28, r22
     a48:	14 2f       	mov	r17, r20
/home/adam/bsides-leeds-2026-badge/firmware/firmware.ino:669
  createRandomSequence(newSequence, sequenceLength);
     a4a:	64 2f       	mov	r22, r20
     a4c:	ce 01       	movw	r24, r28
     a4e:	df df       	rcall	.-66     	; 0xa0e <createRandomSequence(unsigned char*, unsigned char)>
     a50:	90 2f       	mov	r25, r16
     a52:	de 01       	movw	r26, r28
     a54:	e0 2f       	mov	r30, r16
     a56:	ff 2d       	mov	r31, r15
sequencesMatch():
/home/adam/bsides-leeds-2026-badge/firmware/firmware.ino:655
}

bool sequencesMatch(const uint8_t firstSequence[], const uint8_t secondSequence[], uint8_t sequenceLength)
{
  for (uint8_t sequenceIndex = 0; sequenceIndex < sequenceLength; ++sequenceIndex) {
    if (firstSequence[sequenceIndex] != secondSequence[sequenceIndex]) {
     a58:	21 91       	ld	r18, Z+
     a5a:	8d 91       	ld	r24, X+
     a5c:	28 13       	cpse	r18, r24
     a5e:	0b c0       	rjmp	.+22     	; 0xa76 <createDifferentRandomSequence(unsigned char const*, unsigned char*, unsigned char)+0x3e>
/home/adam/bsides-leeds-2026-badge/firmware/firmware.ino:654
  }
}

bool sequencesMatch(const uint8_t firstSequence[], const uint8_t secondSequence[], uint8_t sequenceLength)
{
  for (uint8_t sequenceIndex = 0; sequenceIndex < sequenceLength; ++sequenceIndex) {
     a60:	8e 2f       	mov	r24, r30
     a62:	89 1b       	sub	r24, r25
     a64:	81 17       	cp	r24, r17
     a66:	c0 f3       	brcs	.-16     	; 0xa58 <createDifferentRandomSequence(unsigned char const*, unsigned char*, unsigned char)+0x20>
_Z29createDifferentRandomSequencePKhPhh():
/home/adam/bsides-leeds-2026-badge/firmware/firmware.ino:675

  if (!sequencesMatch(existingSequence, newSequence, sequenceLength)) {
    return;
  }

  newSequence[0] = (newSequence[0] + 1) % 3;
     a68:	88 81       	ld	r24, Y
     a6a:	90 e0       	ldi	r25, 0x00	; 0
     a6c:	01 96       	adiw	r24, 0x01	; 1
     a6e:	63 e0       	ldi	r22, 0x03	; 3
     a70:	70 e0       	ldi	r23, 0x00	; 0
     a72:	63 da       	rcall	.-2874   	; 0xffffff3a <__eeprom_end+0xff7eff3a>
     a74:	88 83       	st	Y, r24
/home/adam/bsides-leeds-2026-badge/firmware/firmware.ino:676
}
     a76:	df 91       	pop	r29
     a78:	cf 91       	pop	r28
     a7a:	1f 91       	pop	r17
     a7c:	0f 91       	pop	r16
     a7e:	ff 90       	pop	r15
     a80:	08 95       	ret

00000a82 <digitalRead.constprop.33>:
digitalRead.constprop.33():
/home/adam/.arduino15/packages/megaTinyCore/hardware/megaavr/2.6.11/cores/megatinycore/wiring_digital.c:363

  /* Get port and check valid port */
  PORT_t *port = digitalPinToPortStruct(pin);

  /* Read pin value from PORTx.IN register */
  if (port->IN & bit_mask) {
     a82:	80 91 08 04 	lds	r24, 0x0408	; 0x800408 <digital_pin_to_bit_mask+0x7f6430>
/home/adam/.arduino15/packages/megaTinyCore/hardware/megaavr/2.6.11/cores/megatinycore/wiring_digital.c:368
    return HIGH;
  } else {
    return LOW;
  }
}
     a86:	83 fb       	bst	r24, 3
     a88:	88 27       	eor	r24, r24
     a8a:	80 f9       	bld	r24, 0
     a8c:	08 95       	ret

00000a8e <digitalWrite.constprop.10>:
digitalWrite.constprop.10():
/home/adam/.arduino15/packages/megaTinyCore/hardware/megaavr/2.6.11/cores/megatinycore/wiring_digital.c:256
  /* Set output to value
  This runs regardless of whether the pin is an output,
  allowing the pin to be staged with
  changed to an output. Code in the wild relies on this behavior. */
  if (val == LOW) { /* If LOW */
    port->OUTCLR = bit_mask;
     a8e:	94 e0       	ldi	r25, 0x04	; 4
/home/adam/.arduino15/packages/megaTinyCore/hardware/megaavr/2.6.11/cores/megatinycore/wiring_digital.c:255
  PORT_t *port = digitalPinToPortStruct(pin);
  /* Set output to value
  This runs regardless of whether the pin is an output,
  allowing the pin to be staged with
  changed to an output. Code in the wild relies on this behavior. */
  if (val == LOW) { /* If LOW */
     a90:	81 11       	cpse	r24, r1
     a92:	16 c0       	rjmp	.+44     	; 0xac0 <digitalWrite.constprop.10+0x32>
/home/adam/.arduino15/packages/megaTinyCore/hardware/megaavr/2.6.11/cores/megatinycore/wiring_digital.c:256
    port->OUTCLR = bit_mask;
     a94:	90 93 26 04 	sts	0x0426, r25	; 0x800426 <digital_pin_to_bit_mask+0x7f644e>
/home/adam/.arduino15/packages/megaTinyCore/hardware/megaavr/2.6.11/cores/megatinycore/wiring_digital.c:280
  } else {
    port->OUTSET = bit_mask;
  }

  /* Input direction */
  if (!(port->DIR & bit_mask)) {
     a98:	90 91 20 04 	lds	r25, 0x0420	; 0x800420 <digital_pin_to_bit_mask+0x7f6448>
     a9c:	92 fd       	sbrc	r25, 2
     a9e:	0a c0       	rjmp	.+20     	; 0xab4 <digitalWrite.constprop.10+0x26>
/home/adam/.arduino15/packages/megaTinyCore/hardware/megaavr/2.6.11/cores/megatinycore/wiring_digital.c:287
    uint8_t bit_pos = digitalPinToBitPosition(pin);
    /* Calculate where pin control register is */
    volatile uint8_t *pin_ctrl_reg = getPINnCTRLregister(port, bit_pos);

    /* Save system status and disable interrupts */
    uint8_t status = SREG;
     aa0:	9f b7       	in	r25, 0x3f	; 63
/home/adam/.arduino15/packages/megaTinyCore/hardware/megaavr/2.6.11/cores/megatinycore/wiring_digital.c:288
    cli();
     aa2:	f8 94       	cli
/home/adam/.arduino15/packages/megaTinyCore/hardware/megaavr/2.6.11/cores/megatinycore/wiring_digital.c:290

    if (val == LOW) {
     aa4:	81 11       	cpse	r24, r1
     aa6:	0f c0       	rjmp	.+30     	; 0xac6 <digitalWrite.constprop.10+0x38>
/home/adam/.arduino15/packages/megaTinyCore/hardware/megaavr/2.6.11/cores/megatinycore/wiring_digital.c:292
      /* Disable pullup */
      *pin_ctrl_reg &= ~PORT_PULLUPEN_bm;
     aa8:	80 91 32 04 	lds	r24, 0x0432	; 0x800432 <digital_pin_to_bit_mask+0x7f645a>
     aac:	87 7f       	andi	r24, 0xF7	; 247
/home/adam/.arduino15/packages/megaTinyCore/hardware/megaavr/2.6.11/cores/megatinycore/wiring_digital.c:295
    } else {
      /* Enable pull-up */
      *pin_ctrl_reg |= PORT_PULLUPEN_bm;
     aae:	80 93 32 04 	sts	0x0432, r24	; 0x800432 <digital_pin_to_bit_mask+0x7f645a>
/home/adam/.arduino15/packages/megaTinyCore/hardware/megaavr/2.6.11/cores/megatinycore/wiring_digital.c:299
    }

    /* Restore system status */
    SREG = status;
     ab2:	9f bf       	out	0x3f, r25	; 63
turnOffPWM():
/home/adam/.arduino15/packages/megaTinyCore/hardware/megaavr/2.6.11/cores/megatinycore/wiring_digital.c:142
          } else {
            // Otherwise, it's WO3-5. These will always be on 0b00hhh000,. Here since we ARE working with a high half timer, we need to just leftshift it once.
            bit_mask <<= 1;
          }
        #endif // End if 8 vs normal parts
        TCA0.SPLIT.CTRLB &= ~bit_mask;
     ab4:	80 91 01 0a 	lds	r24, 0x0A01	; 0x800a01 <digital_pin_to_bit_mask+0x7f6a29>
     ab8:	8b 7f       	andi	r24, 0xFB	; 251
     aba:	80 93 01 0a 	sts	0x0A01, r24	; 0x800a01 <digital_pin_to_bit_mask+0x7f6a29>
digitalWrite.constprop.10():
/home/adam/.arduino15/packages/megaTinyCore/hardware/megaavr/2.6.11/cores/megatinycore/wiring_digital.c:312
   * analogWritten() 255, then digitallyWritten() to HIGH, which
   * would turn it off for the time between turnOffPWM() and
   * PORT->OUTCLR)
   * Since there's no penalty, why make a glitch we don't have to? */
  turnOffPWM(pin);
}
     abe:	08 95       	ret
/home/adam/.arduino15/packages/megaTinyCore/hardware/megaavr/2.6.11/cores/megatinycore/wiring_digital.c:276
    // val will now be 0 (LOW) if the toggling made it LOW
    // or bit_mask if not. And further down, we only need to
    // know if it's
  /* If HIGH OR  > TOGGLE  */
  } else {
    port->OUTSET = bit_mask;
     ac0:	90 93 25 04 	sts	0x0425, r25	; 0x800425 <digital_pin_to_bit_mask+0x7f644d>
     ac4:	e9 cf       	rjmp	.-46     	; 0xa98 <digitalWrite.constprop.10+0xa>
/home/adam/.arduino15/packages/megaTinyCore/hardware/megaavr/2.6.11/cores/megatinycore/wiring_digital.c:295
    if (val == LOW) {
      /* Disable pullup */
      *pin_ctrl_reg &= ~PORT_PULLUPEN_bm;
    } else {
      /* Enable pull-up */
      *pin_ctrl_reg |= PORT_PULLUPEN_bm;
     ac6:	80 91 32 04 	lds	r24, 0x0432	; 0x800432 <digital_pin_to_bit_mask+0x7f645a>
     aca:	88 60       	ori	r24, 0x08	; 8
     acc:	f0 cf       	rjmp	.-32     	; 0xaae <digitalWrite.constprop.10+0x20>

00000ace <pinMode>:
pinMode():
/home/adam/.arduino15/packages/megaTinyCore/hardware/megaavr/2.6.11/cores/megatinycore/wiring_digital.c:44
}

void pinMode(uint8_t pin, uint8_t mode) {
  check_valid_digital_pin(pin);         /* generate compile error if a constant that is not a valid pin is used as the pin */
  check_valid_pin_mode(mode);           /* generate compile error if a constant that is not a valid pin mode is used as the mode */
  uint8_t bit_mask = digitalPinToBitMask(pin);
     ace:	8c 30       	cpi	r24, 0x0C	; 12
     ad0:	f0 f4       	brcc	.+60     	; 0xb0e <pinMode+0x40>
check_valid_digital_pin():
/home/adam/.arduino15/packages/megaTinyCore/hardware/megaavr/2.6.11/cores/megatinycore/Arduino.h:888
#if !defined(NUM_TOTAL_PINS)
  #define NUM_TOTAL_PINS                (NUM_DIGITAL_PINS) /* Used the same way as NUM_DIGITAL_PINS. so it doesn't mean what it's named  - I didn't make the convention*/
#endif

inline __attribute__((always_inline)) void check_valid_digital_pin(pin_size_t pin) {
  if (__builtin_constant_p(pin)) {
     ad2:	90 e0       	ldi	r25, 0x00	; 0
pinMode():
/home/adam/.arduino15/packages/megaTinyCore/hardware/megaavr/2.6.11/cores/megatinycore/wiring_digital.c:44
     ad4:	fc 01       	movw	r30, r24
     ad6:	e8 52       	subi	r30, 0x28	; 40
     ad8:	f0 46       	sbci	r31, 0x60	; 96
     ada:	20 81       	ld	r18, Z
/home/adam/.arduino15/packages/megaTinyCore/hardware/megaavr/2.6.11/cores/megatinycore/wiring_digital.c:45
  if ((bit_mask == NOT_A_PIN) || (mode > INPUT_PULLUP)) {
     adc:	2f 3f       	cpi	r18, 0xFF	; 255
     ade:	b9 f0       	breq	.+46     	; 0xb0e <pinMode+0x40>
/home/adam/.arduino15/packages/megaTinyCore/hardware/megaavr/2.6.11/cores/megatinycore/wiring_digital.c:48
    return;                             /* ignore invalid pins passed at runtime */
  }
  volatile uint8_t * port_base = (volatile uint8_t *) (uint16_t) ((&PORTA) + digitalPinToPort(pin));
     ae0:	fc 01       	movw	r30, r24
     ae2:	e4 53       	subi	r30, 0x34	; 52
     ae4:	f0 46       	sbci	r31, 0x60	; 96
     ae6:	e0 81       	ld	r30, Z
     ae8:	30 e2       	ldi	r19, 0x20	; 32
     aea:	e3 9f       	mul	r30, r19
     aec:	f0 01       	movw	r30, r0
     aee:	11 24       	eor	r1, r1
     af0:	fc 5f       	subi	r31, 0xFC	; 252
/home/adam/.arduino15/packages/megaTinyCore/hardware/megaavr/2.6.11/cores/megatinycore/wiring_digital.c:49
  if (mode & 0x01) {
     af2:	61 30       	cpi	r22, 0x01	; 1
     af4:	69 f4       	brne	.+26     	; 0xb10 <pinMode+0x42>
/home/adam/.arduino15/packages/megaTinyCore/hardware/megaavr/2.6.11/cores/megatinycore/wiring_digital.c:51
    // OUTPUT mode, so write DIRSET with the mask.
    *(port_base + 1) = bit_mask;
     af6:	21 83       	std	Z+1, r18	; 0x01
/home/adam/.arduino15/packages/megaTinyCore/hardware/megaavr/2.6.11/cores/megatinycore/wiring_digital.c:77
  // then load with displacement 2 clocks. IFF the compiler puts this pointer into Y or Z, it is faster and smaller
  // by 2 bytes and one clock. And let's hope it is, because the code above would suck too if it was in X.
  // Handwritten assembly that exploited the knowledge that there will never be a carry would save 1 word and 1 clock.
  // and could probably save at least several times that in initializing the port_base pointer. But if you're using
  // pinMode you probably don't care.
  port_base += (uint8_t) digitalPinToBitPosition(pin);
     af8:	80 54       	subi	r24, 0x40	; 64
     afa:	90 46       	sbci	r25, 0x60	; 96
     afc:	dc 01       	movw	r26, r24
     afe:	8c 91       	ld	r24, X
     b00:	e8 0f       	add	r30, r24
     b02:	f1 1d       	adc	r31, r1
/home/adam/.arduino15/packages/megaTinyCore/hardware/megaavr/2.6.11/cores/megatinycore/wiring_digital.c:78
  bit_mask = *(port_base + 0x10);
     b04:	80 89       	ldd	r24, Z+16	; 0x10
/home/adam/.arduino15/packages/megaTinyCore/hardware/megaavr/2.6.11/cores/megatinycore/wiring_digital.c:79
  if (mode & 2) {
     b06:	61 30       	cpi	r22, 0x01	; 1
     b08:	29 f0       	breq	.+10     	; 0xb14 <pinMode+0x46>
/home/adam/.arduino15/packages/megaTinyCore/hardware/megaavr/2.6.11/cores/megatinycore/wiring_digital.c:80
    bit_mask |= 0x08;
     b0a:	88 60       	ori	r24, 0x08	; 8
/home/adam/.arduino15/packages/megaTinyCore/hardware/megaavr/2.6.11/cores/megatinycore/wiring_digital.c:84
  } else {
    bit_mask &= 0xF7;
  }
  *(port_base + 0x10) = bit_mask;
     b0c:	80 8b       	std	Z+16, r24	; 0x10
/home/adam/.arduino15/packages/megaTinyCore/hardware/megaavr/2.6.11/cores/megatinycore/wiring_digital.c:85
}
     b0e:	08 95       	ret
/home/adam/.arduino15/packages/megaTinyCore/hardware/megaavr/2.6.11/cores/megatinycore/wiring_digital.c:53
  volatile uint8_t * port_base = (volatile uint8_t *) (uint16_t) ((&PORTA) + digitalPinToPort(pin));
  if (mode & 0x01) {
    // OUTPUT mode, so write DIRSET with the mask.
    *(port_base + 1) = bit_mask;
  } else { // otherwise it's input so we write DIRCLR
    *(port_base + 2) = bit_mask;
     b10:	22 83       	std	Z+2, r18	; 0x02
     b12:	f2 cf       	rjmp	.-28     	; 0xaf8 <pinMode+0x2a>
/home/adam/.arduino15/packages/megaTinyCore/hardware/megaavr/2.6.11/cores/megatinycore/wiring_digital.c:82
  port_base += (uint8_t) digitalPinToBitPosition(pin);
  bit_mask = *(port_base + 0x10);
  if (mode & 2) {
    bit_mask |= 0x08;
  } else {
    bit_mask &= 0xF7;
     b14:	87 7f       	andi	r24, 0xF7	; 247
     b16:	fa cf       	rjmp	.-12     	; 0xb0c <pinMode+0x3e>

00000b18 <enterSleep()>:
_Z10enterSleepv():
/home/adam/bsides-leeds-2026-badge/firmware/firmware.ino:172
  }
}

void disableRtc()
{
  RTC.PITINTCTRL = ~(RTC_PI_bm);
     b18:	8e ef       	ldi	r24, 0xFE	; 254
     b1a:	80 93 52 01 	sts	0x0152, r24	; 0x800152 <digital_pin_to_bit_mask+0x7f617a>
/home/adam/bsides-leeds-2026-badge/firmware/firmware.ino:173
  shouldProcessPtc = false;
     b1e:	10 92 cf 3e 	sts	0x3ECF, r1	; 0x803ecf <shouldProcessPtc>
/home/adam/bsides-leeds-2026-badge/firmware/firmware.ino:219
}

void enterSleep()
{
  disableRtc();
  set_sleep_mode(SLEEP_MODE_PWR_DOWN);
     b22:	80 91 50 00 	lds	r24, 0x0050	; 0x800050 <digital_pin_to_bit_mask+0x7f6078>
     b26:	89 7f       	andi	r24, 0xF9	; 249
     b28:	84 60       	ori	r24, 0x04	; 4
     b2a:	80 93 50 00 	sts	0x0050, r24	; 0x800050 <digital_pin_to_bit_mask+0x7f6078>
/home/adam/bsides-leeds-2026-badge/firmware/firmware.ino:221

  PORTA.PIN3CTRL = PORT_PULLUPEN_bm | PORT_ISC_LEVEL_gc;
     b2e:	8d e0       	ldi	r24, 0x0D	; 13
     b30:	80 93 13 04 	sts	0x0413, r24	; 0x800413 <digital_pin_to_bit_mask+0x7f643b>
/home/adam/bsides-leeds-2026-badge/firmware/firmware.ino:222
  digitalWrite(LED_POWER_PIN, LOW);
     b34:	80 e0       	ldi	r24, 0x00	; 0
     b36:	ab df       	rcall	.-170    	; 0xa8e <digitalWrite.constprop.10>
/home/adam/bsides-leeds-2026-badge/firmware/firmware.ino:223
  ADC0.CTRLA &= ~ADC_ENABLE_bm;
     b38:	80 91 00 06 	lds	r24, 0x0600	; 0x800600 <digital_pin_to_bit_mask+0x7f6628>
     b3c:	8e 7f       	andi	r24, 0xFE	; 254
     b3e:	80 93 00 06 	sts	0x0600, r24	; 0x800600 <digital_pin_to_bit_mask+0x7f6628>
     b42:	ce ea       	ldi	r28, 0xAE	; 174
     b44:	df e9       	ldi	r29, 0x9F	; 159
setTouchButtonPins():
/home/adam/bsides-leeds-2026-badge/firmware/firmware.ino:166
}

void setTouchButtonPins(uint8_t mode)
{
  for (uint8_t buttonIndex = 0; buttonIndex < NUM_TOUCH_BUTTONS; ++buttonIndex) {
    pinMode(TOUCH_BUTTON_PINS[buttonIndex], mode);
     b46:	61 e0       	ldi	r22, 0x01	; 1
     b48:	89 91       	ld	r24, Y+
     b4a:	c1 df       	rcall	.-126    	; 0xace <pinMode>
/home/adam/bsides-leeds-2026-badge/firmware/firmware.ino:165
  setAllLeds(color.red, color.green, color.blue, show);
}

void setTouchButtonPins(uint8_t mode)
{
  for (uint8_t buttonIndex = 0; buttonIndex < NUM_TOUCH_BUTTONS; ++buttonIndex) {
     b4c:	8f e9       	ldi	r24, 0x9F	; 159
     b4e:	c4 3b       	cpi	r28, 0xB4	; 180
     b50:	d8 07       	cpc	r29, r24
     b52:	c9 f7       	brne	.-14     	; 0xb46 <enterSleep()+0x2e>
_Z10enterSleepv():
/home/adam/bsides-leeds-2026-badge/firmware/firmware.ino:226
  PORTA.PIN3CTRL = PORT_PULLUPEN_bm | PORT_ISC_LEVEL_gc;
  digitalWrite(LED_POWER_PIN, LOW);
  ADC0.CTRLA &= ~ADC_ENABLE_bm;
  setTouchButtonPins(OUTPUT);

  sleep_enable();
     b54:	80 91 50 00 	lds	r24, 0x0050	; 0x800050 <digital_pin_to_bit_mask+0x7f6078>
     b58:	81 60       	ori	r24, 0x01	; 1
     b5a:	80 93 50 00 	sts	0x0050, r24	; 0x800050 <digital_pin_to_bit_mask+0x7f6078>
/home/adam/bsides-leeds-2026-badge/firmware/firmware.ino:227
  sleep_cpu();
     b5e:	88 95       	sleep
/home/adam/bsides-leeds-2026-badge/firmware/firmware.ino:230

  // Wake is handled by rebooting through the watchdog, as in the original code.
  _PROTECTED_WRITE(WDT.CTRLA, WDT_PERIOD_8CLK_gc);
     b60:	88 ed       	ldi	r24, 0xD8	; 216
     b62:	91 e0       	ldi	r25, 0x01	; 1
     b64:	84 bf       	out	0x34, r24	; 52
     b66:	90 93 00 01 	sts	0x0100, r25	; 0x800100 <digital_pin_to_bit_mask+0x7f6128>
     b6a:	ff cf       	rjmp	.-2      	; 0xb6a <enterSleep()+0x52>

00000b6c <showFindSequencePreviewForPlayer(unsigned char, unsigned char const*)>:
_Z32showFindSequencePreviewForPlayerhPKh():
/home/adam/bsides-leeds-2026-badge/firmware/firmware.ino:929
  delay(FIND_SEQUENCE_PREVIEW_MS);
  showFindSequenceProgress(sequence, 0);
}

void showFindSequencePreviewForPlayer(uint8_t player, const uint8_t sequence[])
{
     b6c:	bf 92       	push	r11
     b6e:	cf 92       	push	r12
     b70:	df 92       	push	r13
     b72:	ef 92       	push	r14
     b74:	ff 92       	push	r15
     b76:	0f 93       	push	r16
     b78:	1f 93       	push	r17
     b7a:	cf 93       	push	r28
     b7c:	df 93       	push	r29
     b7e:	b6 2e       	mov	r11, r22
     b80:	d7 2f       	mov	r29, r23
     b82:	c1 e0       	ldi	r28, 0x01	; 1
     b84:	c8 27       	eor	r28, r24
/home/adam/bsides-leeds-2026-badge/firmware/firmware.ino:930
  const uint8_t waitingPlayer = player == PLAYER_LEFT ? PLAYER_RIGHT : PLAYER_LEFT;
     b86:	8c 2f       	mov	r24, r28
     b88:	81 70       	andi	r24, 0x01	; 1
     b8a:	f8 2e       	mov	r15, r24
/home/adam/bsides-leeds-2026-badge/firmware/firmware.ino:932

  setAllLeds(COLOR_OFF);
     b8c:	c0 90 bd 9f 	lds	r12, 0x9FBD	; 0x809fbd <__bss_end+0x60cd>
     b90:	d0 90 be 9f 	lds	r13, 0x9FBE	; 0x809fbe <__bss_end+0x60ce>
     b94:	e0 90 bf 9f 	lds	r14, 0x9FBF	; 0x809fbf <__bss_end+0x60cf>
     b98:	40 e0       	ldi	r20, 0x00	; 0
     b9a:	8e 2d       	mov	r24, r14
     b9c:	b6 01       	movw	r22, r12
     b9e:	51 de       	rcall	.-862    	; 0x842 <setAllLeds(RgbColor, bool)>
/home/adam/bsides-leeds-2026-badge/firmware/firmware.ino:933
  setPlayerEye(waitingPlayer, COLOR_ORANGE);
     ba0:	40 91 ba 9f 	lds	r20, 0x9FBA	; 0x809fba <__bss_end+0x60ca>
     ba4:	50 91 bb 9f 	lds	r21, 0x9FBB	; 0x809fbb <__bss_end+0x60cb>
     ba8:	60 91 bc 9f 	lds	r22, 0x9FBC	; 0x809fbc <__bss_end+0x60cc>
     bac:	8c 2f       	mov	r24, r28
     bae:	bf dd       	rcall	.-1154   	; 0x72e <setPlayerEye(unsigned char, RgbColor)>
     bb0:	0b 2d       	mov	r16, r11
     bb2:	1d 2f       	mov	r17, r29
     bb4:	d0 e0       	ldi	r29, 0x00	; 0
     bb6:	c0 e0       	ldi	r28, 0x00	; 0
setPlayerSequenceSlotColor():
/home/adam/bsides-leeds-2026-badge/firmware/firmware.ino:890
  ledStrip.setPixelColor(slotIndex, color.red, color.green, color.blue);
}

void setPlayerSequenceSlotColor(uint8_t player, uint8_t slotIndex, uint8_t colorIndex)
{
  setPlayerEyeLed(player, slotIndex, colorForIndex(colorIndex));
     bb8:	f8 01       	movw	r30, r16
     bba:	81 91       	ld	r24, Z+
     bbc:	8f 01       	movw	r16, r30
     bbe:	7a dd       	rcall	.-1292   	; 0x6b4 <colorForIndex(unsigned char)>
     bc0:	47 2f       	mov	r20, r23
     bc2:	28 2f       	mov	r18, r24
setPlayerEyeLed():
/home/adam/bsides-leeds-2026-badge/firmware/firmware.ino:408
  setRightEye(color.red, color.green, color.blue);
}

void setPlayerEyeLed(uint8_t player, uint8_t ledIndex, RgbColor color)
{
  if (player == PLAYER_LEFT) {
     bc4:	ff 20       	and	r15, r15
     bc6:	c9 f0       	breq	.+50     	; 0xbfa <showFindSequencePreviewForPlayer(unsigned char, unsigned char const*)+0x8e>
/home/adam/bsides-leeds-2026-badge/firmware/firmware.ino:409
    ledStrip.setPixelColor(ledIndex, color.red, color.green, color.blue);
     bc8:	ce 01       	movw	r24, r28
     bca:	84 da       	rcall	.-2808   	; 0xd4 <tinyNeoPixel::setPixelColor(unsigned int, unsigned char, unsigned char, unsigned char) [clone .constprop.15]>
     bcc:	21 96       	adiw	r28, 0x01	; 1
_Z32showFindSequencePreviewForPlayerhPKh():
/home/adam/bsides-leeds-2026-badge/firmware/firmware.ino:935
  const uint8_t waitingPlayer = player == PLAYER_LEFT ? PLAYER_RIGHT : PLAYER_LEFT;

  setAllLeds(COLOR_OFF);
  setPlayerEye(waitingPlayer, COLOR_ORANGE);

  for (uint8_t sequenceIndex = 0; sequenceIndex < FIND_SEQUENCE_LENGTH; ++sequenceIndex) {
     bce:	c7 30       	cpi	r28, 0x07	; 7
     bd0:	d1 05       	cpc	r29, r1
     bd2:	91 f7       	brne	.-28     	; 0xbb8 <showFindSequencePreviewForPlayer(unsigned char, unsigned char const*)+0x4c>
/home/adam/bsides-leeds-2026-badge/firmware/firmware.ino:939
    setPlayerSequenceSlotColor(player, sequenceIndex, sequence[sequenceIndex]);
  }

  ledStrip.show();
     bd4:	3b db       	rcall	.-2442   	; 0x24c <tinyNeoPixel::show() [clone .constprop.17]>
delay():
     bd6:	68 eb       	ldi	r22, 0xB8	; 184
     bd8:	7b e0       	ldi	r23, 0x0B	; 11
     bda:	80 e0       	ldi	r24, 0x00	; 0
     bdc:	90 e0       	ldi	r25, 0x00	; 0
     bde:	c0 da       	rcall	.-2688   	; 0x160 <delay.part.0>
_Z32showFindSequencePreviewForPlayerhPKh():
/home/adam/bsides-leeds-2026-badge/firmware/firmware.ino:941
  delay(FIND_SEQUENCE_PREVIEW_MS);
  setAllLeds(COLOR_OFF, true);
     be0:	41 e0       	ldi	r20, 0x01	; 1
     be2:	8e 2d       	mov	r24, r14
     be4:	b6 01       	movw	r22, r12
/home/adam/bsides-leeds-2026-badge/firmware/firmware.ino:942
}
     be6:	df 91       	pop	r29
     be8:	cf 91       	pop	r28
     bea:	1f 91       	pop	r17
     bec:	0f 91       	pop	r16
     bee:	ff 90       	pop	r15
     bf0:	ef 90       	pop	r14
     bf2:	df 90       	pop	r13
     bf4:	cf 90       	pop	r12
     bf6:	bf 90       	pop	r11
/home/adam/bsides-leeds-2026-badge/firmware/firmware.ino:941
    setPlayerSequenceSlotColor(player, sequenceIndex, sequence[sequenceIndex]);
  }

  ledStrip.show();
  delay(FIND_SEQUENCE_PREVIEW_MS);
  setAllLeds(COLOR_OFF, true);
     bf8:	24 ce       	rjmp	.-952    	; 0x842 <setAllLeds(RgbColor, bool)>
setPlayerEyeLed():
/home/adam/bsides-leeds-2026-badge/firmware/firmware.ino:411
void setPlayerEyeLed(uint8_t player, uint8_t ledIndex, RgbColor color)
{
  if (player == PLAYER_LEFT) {
    ledStrip.setPixelColor(ledIndex, color.red, color.green, color.blue);
  } else {
    setRightEyeLed(ledIndex, color.red, color.green, color.blue);
     bfa:	8c 2f       	mov	r24, r28
     bfc:	77 dd       	rcall	.-1298   	; 0x6ec <setRightEyeLed(unsigned char, unsigned char, unsigned char, unsigned char)>
     bfe:	e6 cf       	rjmp	.-52     	; 0xbcc <showFindSequencePreviewForPlayer(unsigned char, unsigned char const*)+0x60>

00000c00 <showTwoPlayerResult(unsigned char, unsigned char)>:
_Z19showTwoPlayerResulthh():
/home/adam/bsides-leeds-2026-badge/firmware/firmware.ino:428
    delay(50);
  }
}

void showTwoPlayerResult(uint8_t leftScore, uint8_t rightScore)
{
     c00:	cf 92       	push	r12
     c02:	df 92       	push	r13
     c04:	ef 92       	push	r14
     c06:	cf 93       	push	r28
     c08:	df 93       	push	r29
     c0a:	d8 2f       	mov	r29, r24
     c0c:	c6 2f       	mov	r28, r22
/home/adam/bsides-leeds-2026-badge/firmware/firmware.ino:429
  setAllLeds(COLOR_OFF);
     c0e:	c0 90 bd 9f 	lds	r12, 0x9FBD	; 0x809fbd <__bss_end+0x60cd>
     c12:	d0 90 be 9f 	lds	r13, 0x9FBE	; 0x809fbe <__bss_end+0x60ce>
     c16:	e0 90 bf 9f 	lds	r14, 0x9FBF	; 0x809fbf <__bss_end+0x60cf>
     c1a:	40 e0       	ldi	r20, 0x00	; 0
     c1c:	8e 2d       	mov	r24, r14
     c1e:	b6 01       	movw	r22, r12
     c20:	10 de       	rcall	.-992    	; 0x842 <setAllLeds(RgbColor, bool)>
/home/adam/bsides-leeds-2026-badge/firmware/firmware.ino:431

  if (leftScore > rightScore) {
     c22:	cd 17       	cp	r28, r29
     c24:	d8 f4       	brcc	.+54     	; 0xc5c <showTwoPlayerResult(unsigned char, unsigned char)+0x5c>
/home/adam/bsides-leeds-2026-badge/firmware/firmware.ino:432
    setPlayerEye(PLAYER_LEFT, COLOR_GREEN);
     c26:	40 91 b4 9f 	lds	r20, 0x9FB4	; 0x809fb4 <__bss_end+0x60c4>
     c2a:	50 91 b5 9f 	lds	r21, 0x9FB5	; 0x809fb5 <__bss_end+0x60c5>
     c2e:	60 91 b6 9f 	lds	r22, 0x9FB6	; 0x809fb6 <__bss_end+0x60c6>
     c32:	80 e0       	ldi	r24, 0x00	; 0
     c34:	7c dd       	rcall	.-1288   	; 0x72e <setPlayerEye(unsigned char, RgbColor)>
setPlayerEye():
/home/adam/bsides-leeds-2026-badge/firmware/firmware.ino:403
  if (player == PLAYER_LEFT) {
    setLeftEye(color.red, color.green, color.blue);
    return;
  }

  setRightEye(color.red, color.green, color.blue);
     c36:	40 e0       	ldi	r20, 0x00	; 0
     c38:	60 e0       	ldi	r22, 0x00	; 0
     c3a:	8e e1       	ldi	r24, 0x1E	; 30
     c3c:	5f dd       	rcall	.-1346   	; 0x6fc <setRightEye(unsigned char, unsigned char, unsigned char)>
_Z19showTwoPlayerResulthh():
/home/adam/bsides-leeds-2026-badge/firmware/firmware.ino:442
  } else {
    setPlayerEye(PLAYER_LEFT, COLOR_GREEN);
    setPlayerEye(PLAYER_RIGHT, COLOR_GREEN);
  }

  ledStrip.show();
     c3e:	06 db       	rcall	.-2548   	; 0x24c <tinyNeoPixel::show() [clone .constprop.17]>
delay():
     c40:	60 ed       	ldi	r22, 0xD0	; 208
     c42:	77 e0       	ldi	r23, 0x07	; 7
     c44:	80 e0       	ldi	r24, 0x00	; 0
     c46:	90 e0       	ldi	r25, 0x00	; 0
     c48:	8b da       	rcall	.-2794   	; 0x160 <delay.part.0>
_Z19showTwoPlayerResulthh():
/home/adam/bsides-leeds-2026-badge/firmware/firmware.ino:444
  delay(2000);
  setAllLeds(COLOR_OFF, true);
     c4a:	41 e0       	ldi	r20, 0x01	; 1
     c4c:	8e 2d       	mov	r24, r14
     c4e:	b6 01       	movw	r22, r12
/home/adam/bsides-leeds-2026-badge/firmware/firmware.ino:445
}
     c50:	df 91       	pop	r29
     c52:	cf 91       	pop	r28
     c54:	ef 90       	pop	r14
     c56:	df 90       	pop	r13
     c58:	cf 90       	pop	r12
/home/adam/bsides-leeds-2026-badge/firmware/firmware.ino:444
    setPlayerEye(PLAYER_RIGHT, COLOR_GREEN);
  }

  ledStrip.show();
  delay(2000);
  setAllLeds(COLOR_OFF, true);
     c5a:	f3 cd       	rjmp	.-1050   	; 0x842 <setAllLeds(RgbColor, bool)>
/home/adam/bsides-leeds-2026-badge/firmware/firmware.ino:435

  if (leftScore > rightScore) {
    setPlayerEye(PLAYER_LEFT, COLOR_GREEN);
    setPlayerEye(PLAYER_RIGHT, COLOR_RED);
  } else if (rightScore > leftScore) {
    setPlayerEye(PLAYER_LEFT, COLOR_RED);
     c5c:	40 91 b7 9f 	lds	r20, 0x9FB7	; 0x809fb7 <__bss_end+0x60c7>
     c60:	50 91 b8 9f 	lds	r21, 0x9FB8	; 0x809fb8 <__bss_end+0x60c8>
     c64:	60 91 b9 9f 	lds	r22, 0x9FB9	; 0x809fb9 <__bss_end+0x60c9>
/home/adam/bsides-leeds-2026-badge/firmware/firmware.ino:434
  setAllLeds(COLOR_OFF);

  if (leftScore > rightScore) {
    setPlayerEye(PLAYER_LEFT, COLOR_GREEN);
    setPlayerEye(PLAYER_RIGHT, COLOR_RED);
  } else if (rightScore > leftScore) {
     c68:	dc 17       	cp	r29, r28
     c6a:	30 f0       	brcs	.+12     	; 0xc78 <showTwoPlayerResult(unsigned char, unsigned char)+0x78>
/home/adam/bsides-leeds-2026-badge/firmware/firmware.ino:438
    setPlayerEye(PLAYER_LEFT, COLOR_RED);
    setPlayerEye(PLAYER_RIGHT, COLOR_GREEN);
  } else {
    setPlayerEye(PLAYER_LEFT, COLOR_GREEN);
     c6c:	40 91 b4 9f 	lds	r20, 0x9FB4	; 0x809fb4 <__bss_end+0x60c4>
     c70:	50 91 b5 9f 	lds	r21, 0x9FB5	; 0x809fb5 <__bss_end+0x60c5>
     c74:	60 91 b6 9f 	lds	r22, 0x9FB6	; 0x809fb6 <__bss_end+0x60c6>
     c78:	80 e0       	ldi	r24, 0x00	; 0
     c7a:	59 dd       	rcall	.-1358   	; 0x72e <setPlayerEye(unsigned char, RgbColor)>
setPlayerEye():
/home/adam/bsides-leeds-2026-badge/firmware/firmware.ino:403
  if (player == PLAYER_LEFT) {
    setLeftEye(color.red, color.green, color.blue);
    return;
  }

  setRightEye(color.red, color.green, color.blue);
     c7c:	40 e0       	ldi	r20, 0x00	; 0
     c7e:	6e e1       	ldi	r22, 0x1E	; 30
     c80:	80 e0       	ldi	r24, 0x00	; 0
     c82:	dc cf       	rjmp	.-72     	; 0xc3c <showTwoPlayerResult(unsigned char, unsigned char)+0x3c>

00000c84 <flashPlayerEye(unsigned char, RgbColor, unsigned char)>:
_Z14flashPlayerEyeh8RgbColorh():
/home/adam/bsides-leeds-2026-badge/firmware/firmware.ino:416
    setRightEyeLed(ledIndex, color.red, color.green, color.blue);
  }
}

void flashPlayerEye(uint8_t player, RgbColor color, uint8_t flashes = 2)
{
     c84:	6f 92       	push	r6
     c86:	7f 92       	push	r7
     c88:	8f 92       	push	r8
     c8a:	cf 92       	push	r12
     c8c:	df 92       	push	r13
     c8e:	ef 92       	push	r14
     c90:	1f 93       	push	r17
     c92:	cf 93       	push	r28
     c94:	df 93       	push	r29
     c96:	d8 2f       	mov	r29, r24
     c98:	3a 01       	movw	r6, r20
     c9a:	86 2e       	mov	r8, r22
     c9c:	12 2f       	mov	r17, r18
/home/adam/bsides-leeds-2026-badge/firmware/firmware.ino:417
  for (uint8_t flashIndex = 0; flashIndex < flashes; ++flashIndex) {
     c9e:	c0 e0       	ldi	r28, 0x00	; 0
/home/adam/bsides-leeds-2026-badge/firmware/firmware.ino:421
    setPlayerEye(player, color);
    ledStrip.show();
    delay(50);
    setPlayerEye(player, COLOR_OFF);
     ca0:	c0 90 bd 9f 	lds	r12, 0x9FBD	; 0x809fbd <__bss_end+0x60cd>
     ca4:	d0 90 be 9f 	lds	r13, 0x9FBE	; 0x809fbe <__bss_end+0x60ce>
     ca8:	e0 90 bf 9f 	lds	r14, 0x9FBF	; 0x809fbf <__bss_end+0x60cf>
/home/adam/bsides-leeds-2026-badge/firmware/firmware.ino:418
}

void flashPlayerEye(uint8_t player, RgbColor color, uint8_t flashes = 2)
{
  for (uint8_t flashIndex = 0; flashIndex < flashes; ++flashIndex) {
    setPlayerEye(player, color);
     cac:	68 2d       	mov	r22, r8
     cae:	a3 01       	movw	r20, r6
     cb0:	8d 2f       	mov	r24, r29
     cb2:	3d dd       	rcall	.-1414   	; 0x72e <setPlayerEye(unsigned char, RgbColor)>
/home/adam/bsides-leeds-2026-badge/firmware/firmware.ino:419
    ledStrip.show();
     cb4:	cb da       	rcall	.-2666   	; 0x24c <tinyNeoPixel::show() [clone .constprop.17]>
delay():
     cb6:	62 e3       	ldi	r22, 0x32	; 50
     cb8:	70 e0       	ldi	r23, 0x00	; 0
     cba:	80 e0       	ldi	r24, 0x00	; 0
     cbc:	90 e0       	ldi	r25, 0x00	; 0
     cbe:	50 da       	rcall	.-2912   	; 0x160 <delay.part.0>
_Z14flashPlayerEyeh8RgbColorh():
/home/adam/bsides-leeds-2026-badge/firmware/firmware.ino:421
    delay(50);
    setPlayerEye(player, COLOR_OFF);
     cc0:	6e 2d       	mov	r22, r14
     cc2:	a6 01       	movw	r20, r12
     cc4:	8d 2f       	mov	r24, r29
     cc6:	33 dd       	rcall	.-1434   	; 0x72e <setPlayerEye(unsigned char, RgbColor)>
/home/adam/bsides-leeds-2026-badge/firmware/firmware.ino:422
    ledStrip.show();
     cc8:	c1 da       	rcall	.-2686   	; 0x24c <tinyNeoPixel::show() [clone .constprop.17]>
delay():
     cca:	62 e3       	ldi	r22, 0x32	; 50
     ccc:	70 e0       	ldi	r23, 0x00	; 0
     cce:	80 e0       	ldi	r24, 0x00	; 0
     cd0:	90 e0       	ldi	r25, 0x00	; 0
     cd2:	46 da       	rcall	.-2932   	; 0x160 <delay.part.0>
_Z14flashPlayerEyeh8RgbColorh():
/home/adam/bsides-leeds-2026-badge/firmware/firmware.ino:417
  }
}

void flashPlayerEye(uint8_t player, RgbColor color, uint8_t flashes = 2)
{
  for (uint8_t flashIndex = 0; flashIndex < flashes; ++flashIndex) {
     cd4:	cf 5f       	subi	r28, 0xFF	; 255
     cd6:	1c 13       	cpse	r17, r28
     cd8:	e9 cf       	rjmp	.-46     	; 0xcac <flashPlayerEye(unsigned char, RgbColor, unsigned char)+0x28>
/home/adam/bsides-leeds-2026-badge/firmware/firmware.ino:425
    delay(50);
    setPlayerEye(player, COLOR_OFF);
    ledStrip.show();
    delay(50);
  }
}
     cda:	df 91       	pop	r29
     cdc:	cf 91       	pop	r28
     cde:	1f 91       	pop	r17
     ce0:	ef 90       	pop	r14
     ce2:	df 90       	pop	r13
     ce4:	cf 90       	pop	r12
     ce6:	8f 90       	pop	r8
     ce8:	7f 90       	pop	r7
     cea:	6f 90       	pop	r6
     cec:	08 95       	ret

00000cee <flashNotification(RgbColor)>:
_Z17flashNotification8RgbColor():
/home/adam/bsides-leeds-2026-badge/firmware/firmware.ino:327

  ledStrip.show();
}

void flashNotification(RgbColor color)
{
     cee:	6f 92       	push	r6
     cf0:	7f 92       	push	r7
     cf2:	8f 92       	push	r8
     cf4:	cf 92       	push	r12
     cf6:	df 92       	push	r13
     cf8:	ef 92       	push	r14
     cfa:	3b 01       	movw	r6, r22
     cfc:	88 2e       	mov	r8, r24
/home/adam/bsides-leeds-2026-badge/firmware/firmware.ino:328
  setAllLeds(color, true);
     cfe:	41 e0       	ldi	r20, 0x01	; 1
     d00:	a0 dd       	rcall	.-1216   	; 0x842 <setAllLeds(RgbColor, bool)>
delay():
     d02:	62 e3       	ldi	r22, 0x32	; 50
     d04:	70 e0       	ldi	r23, 0x00	; 0
     d06:	80 e0       	ldi	r24, 0x00	; 0
     d08:	90 e0       	ldi	r25, 0x00	; 0
     d0a:	2a da       	rcall	.-2988   	; 0x160 <delay.part.0>
_Z17flashNotification8RgbColor():
/home/adam/bsides-leeds-2026-badge/firmware/firmware.ino:330
  delay(50);
  setAllLeds(COLOR_OFF, true);
     d0c:	c0 90 bd 9f 	lds	r12, 0x9FBD	; 0x809fbd <__bss_end+0x60cd>
     d10:	d0 90 be 9f 	lds	r13, 0x9FBE	; 0x809fbe <__bss_end+0x60ce>
     d14:	e0 90 bf 9f 	lds	r14, 0x9FBF	; 0x809fbf <__bss_end+0x60cf>
     d18:	41 e0       	ldi	r20, 0x01	; 1
     d1a:	8e 2d       	mov	r24, r14
     d1c:	b6 01       	movw	r22, r12
     d1e:	91 dd       	rcall	.-1246   	; 0x842 <setAllLeds(RgbColor, bool)>
delay():
     d20:	62 e3       	ldi	r22, 0x32	; 50
     d22:	70 e0       	ldi	r23, 0x00	; 0
     d24:	80 e0       	ldi	r24, 0x00	; 0
     d26:	90 e0       	ldi	r25, 0x00	; 0
     d28:	1b da       	rcall	.-3018   	; 0x160 <delay.part.0>
_Z17flashNotification8RgbColor():
/home/adam/bsides-leeds-2026-badge/firmware/firmware.ino:332
  delay(50);
  setAllLeds(color, true);
     d2a:	41 e0       	ldi	r20, 0x01	; 1
     d2c:	88 2d       	mov	r24, r8
     d2e:	b3 01       	movw	r22, r6
     d30:	88 dd       	rcall	.-1264   	; 0x842 <setAllLeds(RgbColor, bool)>
delay():
     d32:	62 e3       	ldi	r22, 0x32	; 50
     d34:	70 e0       	ldi	r23, 0x00	; 0
     d36:	80 e0       	ldi	r24, 0x00	; 0
     d38:	90 e0       	ldi	r25, 0x00	; 0
     d3a:	12 da       	rcall	.-3036   	; 0x160 <delay.part.0>
_Z17flashNotification8RgbColor():
/home/adam/bsides-leeds-2026-badge/firmware/firmware.ino:334
  delay(50);
  setAllLeds(COLOR_OFF, true);
     d3c:	41 e0       	ldi	r20, 0x01	; 1
     d3e:	8e 2d       	mov	r24, r14
     d40:	b6 01       	movw	r22, r12
     d42:	7f dd       	rcall	.-1282   	; 0x842 <setAllLeds(RgbColor, bool)>
delay():
     d44:	62 e3       	ldi	r22, 0x32	; 50
     d46:	70 e0       	ldi	r23, 0x00	; 0
     d48:	80 e0       	ldi	r24, 0x00	; 0
     d4a:	90 e0       	ldi	r25, 0x00	; 0
_Z17flashNotification8RgbColor():
/home/adam/bsides-leeds-2026-badge/firmware/firmware.ino:336
  delay(50);
}
     d4c:	ef 90       	pop	r14
     d4e:	df 90       	pop	r13
     d50:	cf 90       	pop	r12
     d52:	8f 90       	pop	r8
     d54:	7f 90       	pop	r7
     d56:	6f 90       	pop	r6
delay():
     d58:	03 ca       	rjmp	.-3066   	; 0x160 <delay.part.0>

00000d5a <showSuccess()>:
_Z11showSuccessv():
/home/adam/bsides-leeds-2026-badge/firmware/firmware.ino:344
{
  flashNotification(COLOR_RED);
}

void showSuccess()
{
     d5a:	cf 92       	push	r12
     d5c:	df 92       	push	r13
     d5e:	ef 92       	push	r14
     d60:	cf 93       	push	r28
/home/adam/bsides-leeds-2026-badge/firmware/firmware.ino:346
  
  EEPROM.update(0, state);
     d62:	80 91 d0 3e 	lds	r24, 0x3ED0	; 0x803ed0 <state>
update():
/home/adam/.arduino15/packages/megaTinyCore/hardware/megaavr/2.6.11/libraries/EEPROM/src/EEPROM.h:149
  EERef &operator >>= (uint8_t in)    {
    return *this = **this >> in;
  }

  EERef &update(uint8_t in)          {
    return  in != *this ? *this = in : *this;
     d66:	90 91 00 14 	lds	r25, 0x1400	; 0x801400 <digital_pin_to_bit_mask+0x7f7428>
     d6a:	89 17       	cp	r24, r25
     d6c:	79 f0       	breq	.+30     	; 0xd8c <showSuccess()+0x32>
operator=():
/home/adam/.arduino15/packages/megaTinyCore/hardware/megaavr/2.6.11/libraries/EEPROM/src/EEPROM.h:95
      "ldi %0, 0x03"      "\n\t" // command loaded: page erase-write.
      "st Z, %0"          "\n\t" // write the page erase-write command to nvmctrl.ctrla
      "out 0x3f, r0"      "\n"   // restore SREG
      :"+d"(in)           // take the value we are writing in any upper register as read/write,
      : "x"(adr)          // and the address (not the index) in X
      : "r30", "r31", "r18");      // clobber Z and r18. We needed an upper register for the temporary value to andi it. I wonder if this will fix the eeprom bugs too?
     d6e:	a0 e0       	ldi	r26, 0x00	; 0
     d70:	b4 e1       	ldi	r27, 0x14	; 20
     d72:	e0 e0       	ldi	r30, 0x00	; 0
     d74:	f0 e1       	ldi	r31, 0x10	; 16
     d76:	0f b6       	in	r0, 0x3f	; 63
     d78:	22 81       	ldd	r18, Z+2	; 0x02
     d7a:	23 70       	andi	r18, 0x03	; 3
     d7c:	e9 f7       	brne	.-6      	; 0xd78 <showSuccess()+0x1e>
     d7e:	f8 94       	cli
     d80:	8c 93       	st	X, r24
     d82:	8d e9       	ldi	r24, 0x9D	; 157
     d84:	84 bf       	out	0x34, r24	; 52
     d86:	83 e0       	ldi	r24, 0x03	; 3
     d88:	80 83       	st	Z, r24
     d8a:	0f be       	out	0x3f, r0	; 63
_Z11showSuccessv():
/home/adam/bsides-leeds-2026-badge/firmware/firmware.ino:344
{
  flashNotification(COLOR_RED);
}

void showSuccess()
{
     d8c:	c6 e0       	ldi	r28, 0x06	; 6
/home/adam/bsides-leeds-2026-badge/firmware/firmware.ino:348
  
  EEPROM.update(0, state);
  for (uint8_t flashIndex = 0; flashIndex < 6; ++flashIndex) {
    flashNotification(COLOR_GREEN);
     d8e:	c0 90 b4 9f 	lds	r12, 0x9FB4	; 0x809fb4 <__bss_end+0x60c4>
     d92:	d0 90 b5 9f 	lds	r13, 0x9FB5	; 0x809fb5 <__bss_end+0x60c5>
     d96:	e0 90 b6 9f 	lds	r14, 0x9FB6	; 0x809fb6 <__bss_end+0x60c6>
     d9a:	8e 2d       	mov	r24, r14
     d9c:	b6 01       	movw	r22, r12
     d9e:	a7 df       	rcall	.-178    	; 0xcee <flashNotification(RgbColor)>
     da0:	c1 50       	subi	r28, 0x01	; 1
/home/adam/bsides-leeds-2026-badge/firmware/firmware.ino:347

void showSuccess()
{
  
  EEPROM.update(0, state);
  for (uint8_t flashIndex = 0; flashIndex < 6; ++flashIndex) {
     da2:	d9 f7       	brne	.-10     	; 0xd9a <showSuccess()+0x40>
/home/adam/bsides-leeds-2026-badge/firmware/firmware.ino:350
    flashNotification(COLOR_GREEN);
  }
}
     da4:	cf 91       	pop	r28
     da6:	ef 90       	pop	r14
     da8:	df 90       	pop	r13
     daa:	cf 90       	pop	r12
     dac:	08 95       	ret

00000dae <waitForPlayerColorGuess(unsigned char, unsigned char&) [clone .constprop.5]>:
_Z23waitForPlayerColorGuesshRh.constprop.5():
/home/adam/bsides-leeds-2026-badge/firmware/firmware.ino:779
    default:
      return false;
  }
}

bool waitForPlayerColorGuess(uint8_t player, uint8_t &colorIndex)
     dae:	0f 93       	push	r16
     db0:	1f 93       	push	r17
     db2:	cf 93       	push	r28
     db4:	df 93       	push	r29
     db6:	d8 2f       	mov	r29, r24
     db8:	8b 01       	movw	r16, r22
/home/adam/bsides-leeds-2026-badge/firmware/firmware.ino:393
  }
}

uint8_t playerMask(uint8_t player)
{
  return player == PLAYER_LEFT ? LEFT_PLAYER_MASK : RIGHT_PLAYER_MASK;
     dba:	c7 e0       	ldi	r28, 0x07	; 7
/home/adam/bsides-leeds-2026-badge/firmware/firmware.ino:782
}

bool waitForPlayerColorGuess(uint8_t player, uint8_t &colorIndex)
{
  const uint8_t activeMask = playerMask(player);
  const uint8_t waitingPlayer = player == PLAYER_LEFT ? PLAYER_RIGHT : PLAYER_LEFT;
     dbc:	81 e0       	ldi	r24, 0x01	; 1
playerMask():
/home/adam/bsides-leeds-2026-badge/firmware/firmware.ino:393
  }
}

uint8_t playerMask(uint8_t player)
{
  return player == PLAYER_LEFT ? LEFT_PLAYER_MASK : RIGHT_PLAYER_MASK;
     dbe:	dd 23       	and	r29, r29
     dc0:	11 f0       	breq	.+4      	; 0xdc6 <waitForPlayerColorGuess(unsigned char, unsigned char&) [clone .constprop.5]+0x18>
_Z23waitForPlayerColorGuesshRh.constprop.5():
     dc2:	c8 e3       	ldi	r28, 0x38	; 56
/home/adam/bsides-leeds-2026-badge/firmware/firmware.ino:782
}

bool waitForPlayerColorGuess(uint8_t player, uint8_t &colorIndex)
{
  const uint8_t activeMask = playerMask(player);
  const uint8_t waitingPlayer = player == PLAYER_LEFT ? PLAYER_RIGHT : PLAYER_LEFT;
     dc4:	80 e0       	ldi	r24, 0x00	; 0
/home/adam/bsides-leeds-2026-badge/firmware/firmware.ino:784

  setPlayerEye(waitingPlayer, COLOR_ORANGE);
     dc6:	40 91 ba 9f 	lds	r20, 0x9FBA	; 0x809fba <__bss_end+0x60ca>
     dca:	50 91 bb 9f 	lds	r21, 0x9FBB	; 0x809fbb <__bss_end+0x60cb>
     dce:	60 91 bc 9f 	lds	r22, 0x9FBC	; 0x809fbc <__bss_end+0x60cc>
     dd2:	ad dc       	rcall	.-1702   	; 0x72e <setPlayerEye(unsigned char, RgbColor)>
/home/adam/bsides-leeds-2026-badge/firmware/firmware.ino:785
  ledStrip.show();
     dd4:	3b da       	rcall	.-2954   	; 0x24c <tinyNeoPixel::show() [clone .constprop.17]>
/home/adam/bsides-leeds-2026-badge/firmware/firmware.ino:787

  while (getPressedTouchMask() & activeMask) {
     dd6:	b9 dd       	rcall	.-1166   	; 0x94a <getPressedTouchMask()>
     dd8:	98 2f       	mov	r25, r24
     dda:	9c 23       	and	r25, r28
     ddc:	39 f0       	breq	.+14     	; 0xdec <waitForPlayerColorGuess(unsigned char, unsigned char&) [clone .constprop.5]+0x3e>
_delay_ms():
/home/adam/.arduino15/packages/DxCore/tools/avr-gcc/7.3.0-atmel3.6.1-azduino7b1/avr/include/util/delay.h:187
	#else
		//round up by default
		__ticks_dc = (uint32_t)(ceil(fabs(__tmp)));
	#endif

	__builtin_avr_delay_cycles(__ticks_dc);
     dde:	8f e4       	ldi	r24, 0x4F	; 79
     de0:	93 ec       	ldi	r25, 0xC3	; 195
     de2:	01 97       	sbiw	r24, 0x01	; 1
     de4:	f1 f7       	brne	.-4      	; 0xde2 <waitForPlayerColorGuess(unsigned char, unsigned char&) [clone .constprop.5]+0x34>
     de6:	00 c0       	rjmp	.+0      	; 0xde8 <waitForPlayerColorGuess(unsigned char, unsigned char&) [clone .constprop.5]+0x3a>
     de8:	00 00       	nop
     dea:	f5 cf       	rjmp	.-22     	; 0xdd6 <waitForPlayerColorGuess(unsigned char, unsigned char&) [clone .constprop.5]+0x28>
_Z23waitForPlayerColorGuesshRh.constprop.5():
/home/adam/bsides-leeds-2026-badge/firmware/firmware.ino:792
    delay(TOUCH_POLL_MS);
  }

  uint8_t pressedMask = getPressedTouchMask();
  while ((pressedMask & activeMask) == 0) {
     dec:	8c 23       	and	r24, r28
     dee:	41 f4       	brne	.+16     	; 0xe00 <waitForPlayerColorGuess(unsigned char, unsigned char&) [clone .constprop.5]+0x52>
_delay_ms():
/home/adam/.arduino15/packages/DxCore/tools/avr-gcc/7.3.0-atmel3.6.1-azduino7b1/avr/include/util/delay.h:187
     df0:	ef e4       	ldi	r30, 0x4F	; 79
     df2:	f3 ec       	ldi	r31, 0xC3	; 195
     df4:	31 97       	sbiw	r30, 0x01	; 1
     df6:	f1 f7       	brne	.-4      	; 0xdf4 <waitForPlayerColorGuess(unsigned char, unsigned char&) [clone .constprop.5]+0x46>
     df8:	00 c0       	rjmp	.+0      	; 0xdfa <waitForPlayerColorGuess(unsigned char, unsigned char&) [clone .constprop.5]+0x4c>
     dfa:	00 00       	nop
_Z23waitForPlayerColorGuesshRh.constprop.5():
/home/adam/bsides-leeds-2026-badge/firmware/firmware.ino:794
    delay(TOUCH_POLL_MS);
    pressedMask = getPressedTouchMask();
     dfc:	a6 dd       	rcall	.-1204   	; 0x94a <getPressedTouchMask()>
     dfe:	f6 cf       	rjmp	.-20     	; 0xdec <waitForPlayerColorGuess(unsigned char, unsigned char&) [clone .constprop.5]+0x3e>
pressedMaskToPlayerColorIndex():
/home/adam/bsides-leeds-2026-badge/firmware/firmware.ino:748

bool pressedMaskToPlayerColorIndex(uint8_t pressedMask, uint8_t player, uint8_t &colorIndex)
{
  const uint8_t playerPressedMask = pressedMask & playerMask(player);

  if (player == PLAYER_LEFT) {
     e00:	d1 11       	cpse	r29, r1
     e02:	1d c0       	rjmp	.+58     	; 0xe3e <waitForPlayerColorGuess(unsigned char, unsigned char&) [clone .constprop.5]+0x90>
/home/adam/bsides-leeds-2026-badge/firmware/firmware.ino:749
    switch (playerPressedMask) {
     e04:	82 30       	cpi	r24, 0x02	; 2
     e06:	31 f0       	breq	.+12     	; 0xe14 <waitForPlayerColorGuess(unsigned char, unsigned char&) [clone .constprop.5]+0x66>
     e08:	84 30       	cpi	r24, 0x04	; 4
     e0a:	f9 f0       	breq	.+62     	; 0xe4a <waitForPlayerColorGuess(unsigned char, unsigned char&) [clone .constprop.5]+0x9c>
     e0c:	81 30       	cpi	r24, 0x01	; 1
     e0e:	09 f5       	brne	.+66     	; 0xe52 <waitForPlayerColorGuess(unsigned char, unsigned char&) [clone .constprop.5]+0xa4>
/home/adam/bsides-leeds-2026-badge/firmware/firmware.ino:757
        return true;
      case LEFT_GREEN_MASK:
        colorIndex = 1;
        return true;
      case LEFT_BLUE_MASK:
        colorIndex = 2;
     e10:	82 e0       	ldi	r24, 0x02	; 2
     e12:	1c c0       	rjmp	.+56     	; 0xe4c <waitForPlayerColorGuess(unsigned char, unsigned char&) [clone .constprop.5]+0x9e>
/home/adam/bsides-leeds-2026-badge/firmware/firmware.ino:751
  const uint8_t playerPressedMask = pressedMask & playerMask(player);

  if (player == PLAYER_LEFT) {
    switch (playerPressedMask) {
      case LEFT_RED_MASK:
        colorIndex = 0;
     e14:	f8 01       	movw	r30, r16
     e16:	10 82       	st	Z, r1
_Z23waitForPlayerColorGuesshRh.constprop.5():
/home/adam/bsides-leeds-2026-badge/firmware/firmware.ino:798
    delay(TOUCH_POLL_MS);
    pressedMask = getPressedTouchMask();
  }

  const bool isKnownColor = pressedMaskToPlayerColorIndex(pressedMask, player, colorIndex);
  setPlayerEye(player, isKnownColor ? colorForIndex(colorIndex) : COLOR_OFF);
     e18:	f8 01       	movw	r30, r16
     e1a:	80 81       	ld	r24, Z
     e1c:	4b dc       	rcall	.-1898   	; 0x6b4 <colorForIndex(unsigned char)>
     e1e:	ab 01       	movw	r20, r22
     e20:	11 e0       	ldi	r17, 0x01	; 1
     e22:	68 2f       	mov	r22, r24
     e24:	8d 2f       	mov	r24, r29
     e26:	83 dc       	rcall	.-1786   	; 0x72e <setPlayerEye(unsigned char, RgbColor)>
/home/adam/bsides-leeds-2026-badge/firmware/firmware.ino:799
  ledStrip.show();
     e28:	11 da       	rcall	.-3038   	; 0x24c <tinyNeoPixel::show() [clone .constprop.17]>
/home/adam/bsides-leeds-2026-badge/firmware/firmware.ino:801

  while (getPressedTouchMask() & activeMask) {
     e2a:	8f dd       	rcall	.-1250   	; 0x94a <getPressedTouchMask()>
     e2c:	8c 23       	and	r24, r28
     e2e:	b1 f0       	breq	.+44     	; 0xe5c <waitForPlayerColorGuess(unsigned char, unsigned char&) [clone .constprop.5]+0xae>
_delay_ms():
/home/adam/.arduino15/packages/DxCore/tools/avr-gcc/7.3.0-atmel3.6.1-azduino7b1/avr/include/util/delay.h:187
     e30:	8f e4       	ldi	r24, 0x4F	; 79
     e32:	93 ec       	ldi	r25, 0xC3	; 195
     e34:	01 97       	sbiw	r24, 0x01	; 1
     e36:	f1 f7       	brne	.-4      	; 0xe34 <waitForPlayerColorGuess(unsigned char, unsigned char&) [clone .constprop.5]+0x86>
     e38:	00 c0       	rjmp	.+0      	; 0xe3a <waitForPlayerColorGuess(unsigned char, unsigned char&) [clone .constprop.5]+0x8c>
     e3a:	00 00       	nop
     e3c:	f6 cf       	rjmp	.-20     	; 0xe2a <waitForPlayerColorGuess(unsigned char, unsigned char&) [clone .constprop.5]+0x7c>
pressedMaskToPlayerColorIndex():
/home/adam/bsides-leeds-2026-badge/firmware/firmware.ino:764
      default:
        return false;
    }
  }

  switch (playerPressedMask) {
     e3e:	80 31       	cpi	r24, 0x10	; 16
     e40:	49 f3       	breq	.-46     	; 0xe14 <waitForPlayerColorGuess(unsigned char, unsigned char&) [clone .constprop.5]+0x66>
     e42:	80 32       	cpi	r24, 0x20	; 32
     e44:	29 f3       	breq	.-54     	; 0xe10 <waitForPlayerColorGuess(unsigned char, unsigned char&) [clone .constprop.5]+0x62>
     e46:	88 30       	cpi	r24, 0x08	; 8
     e48:	21 f4       	brne	.+8      	; 0xe52 <waitForPlayerColorGuess(unsigned char, unsigned char&) [clone .constprop.5]+0xa4>
/home/adam/bsides-leeds-2026-badge/firmware/firmware.ino:754
    switch (playerPressedMask) {
      case LEFT_RED_MASK:
        colorIndex = 0;
        return true;
      case LEFT_GREEN_MASK:
        colorIndex = 1;
     e4a:	81 e0       	ldi	r24, 0x01	; 1
/home/adam/bsides-leeds-2026-badge/firmware/firmware.ino:757
        return true;
      case LEFT_BLUE_MASK:
        colorIndex = 2;
     e4c:	f8 01       	movw	r30, r16
     e4e:	80 83       	st	Z, r24
     e50:	e3 cf       	rjmp	.-58     	; 0xe18 <waitForPlayerColorGuess(unsigned char, unsigned char&) [clone .constprop.5]+0x6a>
_Z23waitForPlayerColorGuesshRh.constprop.5():
/home/adam/bsides-leeds-2026-badge/firmware/firmware.ino:798
    delay(TOUCH_POLL_MS);
    pressedMask = getPressedTouchMask();
  }

  const bool isKnownColor = pressedMaskToPlayerColorIndex(pressedMask, player, colorIndex);
  setPlayerEye(player, isKnownColor ? colorForIndex(colorIndex) : COLOR_OFF);
     e52:	40 e0       	ldi	r20, 0x00	; 0
     e54:	50 e0       	ldi	r21, 0x00	; 0
     e56:	80 e0       	ldi	r24, 0x00	; 0
     e58:	10 e0       	ldi	r17, 0x00	; 0
     e5a:	e3 cf       	rjmp	.-58     	; 0xe22 <waitForPlayerColorGuess(unsigned char, unsigned char&) [clone .constprop.5]+0x74>
/home/adam/bsides-leeds-2026-badge/firmware/firmware.ino:806
  while (getPressedTouchMask() & activeMask) {
    delay(TOUCH_POLL_MS);
  }

  return isKnownColor;
}
     e5c:	81 2f       	mov	r24, r17
     e5e:	df 91       	pop	r29
     e60:	cf 91       	pop	r28
     e62:	1f 91       	pop	r17
     e64:	0f 91       	pop	r16
     e66:	08 95       	ret

00000e68 <playFindTheSequenceForPlayer(unsigned char, unsigned char const*, unsigned char)>:
_Z28playFindTheSequenceForPlayerhPKhh():
/home/adam/bsides-leeds-2026-badge/firmware/firmware.ino:1003
uint8_t playFindTheSequenceForPlayer(
  uint8_t player,
  const uint8_t sequence[],
  uint8_t scoreNeededToWin = FIND_SEQUENCE_LENGTH
)
{
     e68:	bf 92       	push	r11
     e6a:	cf 92       	push	r12
     e6c:	df 92       	push	r13
     e6e:	ef 92       	push	r14
     e70:	ff 92       	push	r15
     e72:	0f 93       	push	r16
     e74:	1f 93       	push	r17
     e76:	cf 93       	push	r28
     e78:	df 93       	push	r29
     e7a:	1f 92       	push	r1
     e7c:	cd b7       	in	r28, 0x3d	; 61
     e7e:	de b7       	in	r29, 0x3e	; 62
     e80:	18 2f       	mov	r17, r24
     e82:	7b 01       	movw	r14, r22
     e84:	b4 2e       	mov	r11, r20
     e86:	87 e0       	ldi	r24, 0x07	; 7
     e88:	84 17       	cp	r24, r20
     e8a:	10 f4       	brcc	.+4      	; 0xe90 <playFindTheSequenceForPlayer(unsigned char, unsigned char const*, unsigned char)+0x28>
     e8c:	87 e0       	ldi	r24, 0x07	; 7
     e8e:	b8 2e       	mov	r11, r24
/home/adam/bsides-leeds-2026-badge/firmware/firmware.ino:1009
  if (scoreNeededToWin > FIND_SEQUENCE_LENGTH) {
    scoreNeededToWin = FIND_SEQUENCE_LENGTH;
  }

  uint8_t foundLength = 0;
  showFindSequenceProgressForPlayer(player, sequence, foundLength);
     e90:	40 e0       	ldi	r20, 0x00	; 0
     e92:	b7 01       	movw	r22, r14
     e94:	81 2f       	mov	r24, r17
     e96:	72 dc       	rcall	.-1820   	; 0x77c <showFindSequenceProgressForPlayer(unsigned char, unsigned char const*, unsigned char)>
     e98:	67 01       	movw	r12, r14
/home/adam/bsides-leeds-2026-badge/firmware/firmware.ino:1008
{
  if (scoreNeededToWin > FIND_SEQUENCE_LENGTH) {
    scoreNeededToWin = FIND_SEQUENCE_LENGTH;
  }

  uint8_t foundLength = 0;
     e9a:	00 e0       	ldi	r16, 0x00	; 0
/home/adam/bsides-leeds-2026-badge/firmware/firmware.ino:1012
  showFindSequenceProgressForPlayer(player, sequence, foundLength);

  while (foundLength < FIND_SEQUENCE_LENGTH) {
    uint8_t guessedColor = 0;
     e9c:	19 82       	std	Y+1, r1	; 0x01
/home/adam/bsides-leeds-2026-badge/firmware/firmware.ino:1013
    const bool hasColorGuess = waitForPlayerColorGuess(player, guessedColor);
     e9e:	be 01       	movw	r22, r28
     ea0:	6f 5f       	subi	r22, 0xFF	; 255
     ea2:	7f 4f       	sbci	r23, 0xFF	; 255
     ea4:	81 2f       	mov	r24, r17
     ea6:	83 df       	rcall	.-250    	; 0xdae <waitForPlayerColorGuess(unsigned char, unsigned char&) [clone .constprop.5]>
/home/adam/bsides-leeds-2026-badge/firmware/firmware.ino:1015

    if (!hasColorGuess || guessedColor != sequence[foundLength]) {
     ea8:	81 11       	cpse	r24, r1
     eaa:	19 c0       	rjmp	.+50     	; 0xede <playFindTheSequenceForPlayer(unsigned char, unsigned char const*, unsigned char)+0x76>
/home/adam/bsides-leeds-2026-badge/firmware/firmware.ino:1016
      showFindSequenceProgressForPlayer(player, sequence, 0);
     eac:	40 e0       	ldi	r20, 0x00	; 0
     eae:	b7 01       	movw	r22, r14
     eb0:	81 2f       	mov	r24, r17
     eb2:	64 dc       	rcall	.-1848   	; 0x77c <showFindSequenceProgressForPlayer(unsigned char, unsigned char const*, unsigned char)>
/home/adam/bsides-leeds-2026-badge/firmware/firmware.ino:1017
      flashPlayerEye(player, COLOR_RED);
     eb4:	40 91 b7 9f 	lds	r20, 0x9FB7	; 0x809fb7 <__bss_end+0x60c7>
     eb8:	50 91 b8 9f 	lds	r21, 0x9FB8	; 0x809fb8 <__bss_end+0x60c8>
     ebc:	60 91 b9 9f 	lds	r22, 0x9FB9	; 0x809fb9 <__bss_end+0x60c9>
/home/adam/bsides-leeds-2026-badge/firmware/firmware.ino:1026
    ++foundLength;
    showFindSequenceProgressForPlayer(player, sequence, foundLength);
    delay(300);

    if (foundLength >= scoreNeededToWin) {
      flashPlayerEye(player, COLOR_GREEN, 2);
     ec0:	22 e0       	ldi	r18, 0x02	; 2
     ec2:	81 2f       	mov	r24, r17
     ec4:	df de       	rcall	.-578    	; 0xc84 <flashPlayerEye(unsigned char, RgbColor, unsigned char)>
/home/adam/bsides-leeds-2026-badge/firmware/firmware.ino:1032
      return foundLength;
    }
  }

  return foundLength;
}
     ec6:	80 2f       	mov	r24, r16
     ec8:	0f 90       	pop	r0
     eca:	df 91       	pop	r29
     ecc:	cf 91       	pop	r28
     ece:	1f 91       	pop	r17
     ed0:	0f 91       	pop	r16
     ed2:	ff 90       	pop	r15
     ed4:	ef 90       	pop	r14
     ed6:	df 90       	pop	r13
     ed8:	cf 90       	pop	r12
     eda:	bf 90       	pop	r11
     edc:	08 95       	ret
/home/adam/bsides-leeds-2026-badge/firmware/firmware.ino:1015

  while (foundLength < FIND_SEQUENCE_LENGTH) {
    uint8_t guessedColor = 0;
    const bool hasColorGuess = waitForPlayerColorGuess(player, guessedColor);

    if (!hasColorGuess || guessedColor != sequence[foundLength]) {
     ede:	f6 01       	movw	r30, r12
     ee0:	91 91       	ld	r25, Z+
     ee2:	6f 01       	movw	r12, r30
     ee4:	89 81       	ldd	r24, Y+1	; 0x01
     ee6:	98 13       	cpse	r25, r24
     ee8:	e1 cf       	rjmp	.-62     	; 0xeac <playFindTheSequenceForPlayer(unsigned char, unsigned char const*, unsigned char)+0x44>
/home/adam/bsides-leeds-2026-badge/firmware/firmware.ino:1021
      showFindSequenceProgressForPlayer(player, sequence, 0);
      flashPlayerEye(player, COLOR_RED);
      return foundLength;
    }

    ++foundLength;
     eea:	0f 5f       	subi	r16, 0xFF	; 255
/home/adam/bsides-leeds-2026-badge/firmware/firmware.ino:1022
    showFindSequenceProgressForPlayer(player, sequence, foundLength);
     eec:	40 2f       	mov	r20, r16
     eee:	b7 01       	movw	r22, r14
     ef0:	81 2f       	mov	r24, r17
     ef2:	44 dc       	rcall	.-1912   	; 0x77c <showFindSequenceProgressForPlayer(unsigned char, unsigned char const*, unsigned char)>
delay():
     ef4:	6c e2       	ldi	r22, 0x2C	; 44
     ef6:	71 e0       	ldi	r23, 0x01	; 1
     ef8:	80 e0       	ldi	r24, 0x00	; 0
     efa:	90 e0       	ldi	r25, 0x00	; 0
     efc:	31 d9       	rcall	.-3486   	; 0x160 <delay.part.0>
_Z28playFindTheSequenceForPlayerhPKhh():
/home/adam/bsides-leeds-2026-badge/firmware/firmware.ino:1025
    delay(300);

    if (foundLength >= scoreNeededToWin) {
     efe:	0b 15       	cp	r16, r11
     f00:	68 f2       	brcs	.-102    	; 0xe9c <playFindTheSequenceForPlayer(unsigned char, unsigned char const*, unsigned char)+0x34>
/home/adam/bsides-leeds-2026-badge/firmware/firmware.ino:1026
      flashPlayerEye(player, COLOR_GREEN, 2);
     f02:	40 91 b4 9f 	lds	r20, 0x9FB4	; 0x809fb4 <__bss_end+0x60c4>
     f06:	50 91 b5 9f 	lds	r21, 0x9FB5	; 0x809fb5 <__bss_end+0x60c5>
     f0a:	60 91 b6 9f 	lds	r22, 0x9FB6	; 0x809fb6 <__bss_end+0x60c6>
     f0e:	d8 cf       	rjmp	.-80     	; 0xec0 <playFindTheSequenceForPlayer(unsigned char, unsigned char const*, unsigned char)+0x58>

00000f10 <playFollowTheSequenceLevelForPlayer(unsigned char, unsigned char const*, unsigned char)>:
_Z35playFollowTheSequenceLevelForPlayerhPKhh():
/home/adam/bsides-leeds-2026-badge/firmware/firmware.ino:809

  return isKnownColor;
}

bool playFollowTheSequenceLevelForPlayer(uint8_t player, const uint8_t sequence[], uint8_t level)
{
     f10:	6f 92       	push	r6
     f12:	7f 92       	push	r7
     f14:	8f 92       	push	r8
     f16:	9f 92       	push	r9
     f18:	af 92       	push	r10
     f1a:	bf 92       	push	r11
     f1c:	cf 92       	push	r12
     f1e:	df 92       	push	r13
     f20:	ef 92       	push	r14
     f22:	ff 92       	push	r15
     f24:	0f 93       	push	r16
     f26:	1f 93       	push	r17
     f28:	cf 93       	push	r28
     f2a:	df 93       	push	r29
     f2c:	1f 92       	push	r1
     f2e:	cd b7       	in	r28, 0x3d	; 61
     f30:	de b7       	in	r29, 0x3e	; 62
     f32:	d8 2e       	mov	r13, r24
     f34:	c6 2e       	mov	r12, r22
     f36:	b4 2e       	mov	r11, r20
     f38:	06 2f       	mov	r16, r22
     f3a:	17 2f       	mov	r17, r23
     f3c:	e6 2e       	mov	r14, r22
     f3e:	f7 2e       	mov	r15, r23
showSequenceColorForPlayer():
/home/adam/bsides-leeds-2026-badge/firmware/firmware.ino:638
  setAllLeds(colorForIndex(colorIndex));
}

void showSequenceColorForPlayer(uint8_t player, uint8_t colorIndex)
{
  setAllLeds(COLOR_OFF);
     f40:	60 90 bd 9f 	lds	r6, 0x9FBD	; 0x809fbd <__bss_end+0x60cd>
     f44:	70 90 be 9f 	lds	r7, 0x9FBE	; 0x809fbe <__bss_end+0x60ce>
     f48:	80 90 bf 9f 	lds	r8, 0x9FBF	; 0x809fbf <__bss_end+0x60cf>
     f4c:	a6 2e       	mov	r10, r22
_Z35playFollowTheSequenceLevelForPlayerhPKhh():
/home/adam/bsides-leeds-2026-badge/firmware/firmware.ino:811
}

bool playFollowTheSequenceLevelForPlayer(uint8_t player, const uint8_t sequence[], uint8_t level)
{
  for (uint8_t sequenceIndex = 0; sequenceIndex < level; ++sequenceIndex) {
    showSequenceColorForPlayer(player, sequence[sequenceIndex]);
     f4e:	f7 01       	movw	r30, r14
     f50:	91 90       	ld	r9, Z+
     f52:	7f 01       	movw	r14, r30
showSequenceColorForPlayer():
/home/adam/bsides-leeds-2026-badge/firmware/firmware.ino:638
  setAllLeds(colorForIndex(colorIndex));
}

void showSequenceColorForPlayer(uint8_t player, uint8_t colorIndex)
{
  setAllLeds(COLOR_OFF);
     f54:	40 e0       	ldi	r20, 0x00	; 0
     f56:	88 2d       	mov	r24, r8
     f58:	b3 01       	movw	r22, r6
     f5a:	73 dc       	rcall	.-1818   	; 0x842 <setAllLeds(RgbColor, bool)>
/home/adam/bsides-leeds-2026-badge/firmware/firmware.ino:639
  setPlayerEye(player, colorForIndex(colorIndex));
     f5c:	89 2d       	mov	r24, r9
     f5e:	aa db       	rcall	.-2220   	; 0x6b4 <colorForIndex(unsigned char)>
     f60:	ab 01       	movw	r20, r22
     f62:	68 2f       	mov	r22, r24
     f64:	8d 2d       	mov	r24, r13
     f66:	e3 db       	rcall	.-2106   	; 0x72e <setPlayerEye(unsigned char, RgbColor)>
/home/adam/bsides-leeds-2026-badge/firmware/firmware.ino:640
  ledStrip.show();
     f68:	71 d9       	rcall	.-3358   	; 0x24c <tinyNeoPixel::show() [clone .constprop.17]>
delay():
     f6a:	60 e9       	ldi	r22, 0x90	; 144
     f6c:	71 e0       	ldi	r23, 0x01	; 1
     f6e:	80 e0       	ldi	r24, 0x00	; 0
     f70:	90 e0       	ldi	r25, 0x00	; 0
     f72:	f6 d8       	rcall	.-3604   	; 0x160 <delay.part.0>
_Z35playFollowTheSequenceLevelForPlayerhPKhh():
/home/adam/bsides-leeds-2026-badge/firmware/firmware.ino:813
bool playFollowTheSequenceLevelForPlayer(uint8_t player, const uint8_t sequence[], uint8_t level)
{
  for (uint8_t sequenceIndex = 0; sequenceIndex < level; ++sequenceIndex) {
    showSequenceColorForPlayer(player, sequence[sequenceIndex]);
    delay(400);
    setPlayerEye(player, COLOR_OFF);
     f74:	68 2d       	mov	r22, r8
     f76:	a3 01       	movw	r20, r6
     f78:	8d 2d       	mov	r24, r13
     f7a:	d9 db       	rcall	.-2126   	; 0x72e <setPlayerEye(unsigned char, RgbColor)>
/home/adam/bsides-leeds-2026-badge/firmware/firmware.ino:814
    ledStrip.show();
     f7c:	67 d9       	rcall	.-3378   	; 0x24c <tinyNeoPixel::show() [clone .constprop.17]>
delay():
     f7e:	68 ec       	ldi	r22, 0xC8	; 200
     f80:	70 e0       	ldi	r23, 0x00	; 0
     f82:	80 e0       	ldi	r24, 0x00	; 0
     f84:	90 e0       	ldi	r25, 0x00	; 0
     f86:	ec d8       	rcall	.-3624   	; 0x160 <delay.part.0>
_Z35playFollowTheSequenceLevelForPlayerhPKhh():
/home/adam/bsides-leeds-2026-badge/firmware/firmware.ino:810
  return isKnownColor;
}

bool playFollowTheSequenceLevelForPlayer(uint8_t player, const uint8_t sequence[], uint8_t level)
{
  for (uint8_t sequenceIndex = 0; sequenceIndex < level; ++sequenceIndex) {
     f88:	8e 2d       	mov	r24, r14
     f8a:	8c 19       	sub	r24, r12
     f8c:	8b 15       	cp	r24, r11
     f8e:	f8 f2       	brcs	.-66     	; 0xf4e <playFollowTheSequenceLevelForPlayer(unsigned char, unsigned char const*, unsigned char)+0x3e>
/home/adam/bsides-leeds-2026-badge/firmware/firmware.ino:819
    ledStrip.show();
    delay(200);
  }

  for (uint8_t sequenceIndex = 0; sequenceIndex < level; ++sequenceIndex) {
    uint8_t guessedColor = 0;
     f90:	19 82       	std	Y+1, r1	; 0x01
/home/adam/bsides-leeds-2026-badge/firmware/firmware.ino:820
    const bool hasColorGuess = waitForPlayerColorGuess(player, guessedColor);
     f92:	be 01       	movw	r22, r28
     f94:	6f 5f       	subi	r22, 0xFF	; 255
     f96:	7f 4f       	sbci	r23, 0xFF	; 255
     f98:	8d 2d       	mov	r24, r13
     f9a:	09 df       	rcall	.-494    	; 0xdae <waitForPlayerColorGuess(unsigned char, unsigned char&) [clone .constprop.5]>
/home/adam/bsides-leeds-2026-badge/firmware/firmware.ino:822

    if (!hasColorGuess || guessedColor != sequence[sequenceIndex]) {
     f9c:	88 23       	and	r24, r24
     f9e:	31 f0       	breq	.+12     	; 0xfac <playFollowTheSequenceLevelForPlayer(unsigned char, unsigned char const*, unsigned char)+0x9c>
     fa0:	f8 01       	movw	r30, r16
     fa2:	91 91       	ld	r25, Z+
     fa4:	8f 01       	movw	r16, r30
     fa6:	89 81       	ldd	r24, Y+1	; 0x01
     fa8:	98 17       	cp	r25, r24
     faa:	89 f0       	breq	.+34     	; 0xfce <playFollowTheSequenceLevelForPlayer(unsigned char, unsigned char const*, unsigned char)+0xbe>
/home/adam/bsides-leeds-2026-badge/firmware/firmware.ino:823
      return false;
     fac:	80 e0       	ldi	r24, 0x00	; 0
/home/adam/bsides-leeds-2026-badge/firmware/firmware.ino:832
    ledStrip.show();
    delay(250);
  }

  return true;
}
     fae:	0f 90       	pop	r0
     fb0:	df 91       	pop	r29
     fb2:	cf 91       	pop	r28
     fb4:	1f 91       	pop	r17
     fb6:	0f 91       	pop	r16
     fb8:	ff 90       	pop	r15
     fba:	ef 90       	pop	r14
     fbc:	df 90       	pop	r13
     fbe:	cf 90       	pop	r12
     fc0:	bf 90       	pop	r11
     fc2:	af 90       	pop	r10
     fc4:	9f 90       	pop	r9
     fc6:	8f 90       	pop	r8
     fc8:	7f 90       	pop	r7
     fca:	6f 90       	pop	r6
     fcc:	08 95       	ret
/home/adam/bsides-leeds-2026-badge/firmware/firmware.ino:826

    if (!hasColorGuess || guessedColor != sequence[sequenceIndex]) {
      return false;
    }

    setPlayerEye(player, COLOR_OFF);
     fce:	68 2d       	mov	r22, r8
     fd0:	a3 01       	movw	r20, r6
     fd2:	8d 2d       	mov	r24, r13
     fd4:	ac db       	rcall	.-2216   	; 0x72e <setPlayerEye(unsigned char, RgbColor)>
/home/adam/bsides-leeds-2026-badge/firmware/firmware.ino:827
    ledStrip.show();
     fd6:	3a d9       	rcall	.-3468   	; 0x24c <tinyNeoPixel::show() [clone .constprop.17]>
delay():
     fd8:	6a ef       	ldi	r22, 0xFA	; 250
     fda:	70 e0       	ldi	r23, 0x00	; 0
     fdc:	80 e0       	ldi	r24, 0x00	; 0
     fde:	90 e0       	ldi	r25, 0x00	; 0
     fe0:	bf d8       	rcall	.-3714   	; 0x160 <delay.part.0>
_Z35playFollowTheSequenceLevelForPlayerhPKhh():
/home/adam/bsides-leeds-2026-badge/firmware/firmware.ino:818
    setPlayerEye(player, COLOR_OFF);
    ledStrip.show();
    delay(200);
  }

  for (uint8_t sequenceIndex = 0; sequenceIndex < level; ++sequenceIndex) {
     fe2:	80 2f       	mov	r24, r16
     fe4:	8a 19       	sub	r24, r10
     fe6:	8b 15       	cp	r24, r11
     fe8:	98 f2       	brcs	.-90     	; 0xf90 <playFollowTheSequenceLevelForPlayer(unsigned char, unsigned char const*, unsigned char)+0x80>
/home/adam/bsides-leeds-2026-badge/firmware/firmware.ino:831
    setPlayerEye(player, COLOR_OFF);
    ledStrip.show();
    delay(250);
  }

  return true;
     fea:	81 e0       	ldi	r24, 0x01	; 1
     fec:	e0 cf       	rjmp	.-64     	; 0xfae <playFollowTheSequenceLevelForPlayer(unsigned char, unsigned char const*, unsigned char)+0x9e>

00000fee <waitForAllTouchPadsReleased()>:
_Z27waitForAllTouchPadsReleasedv():
/home/adam/bsides-leeds-2026-badge/firmware/firmware.ino:359
  return getPressedTouchMask() != 0;
}

void waitForAllTouchPadsReleased()
{
  while (getPressedTouchMask() != 0) {
     fee:	ad dc       	rcall	.-1702   	; 0x94a <getPressedTouchMask()>
     ff0:	88 23       	and	r24, r24
     ff2:	39 f0       	breq	.+14     	; 0x1002 <waitForAllTouchPadsReleased()+0x14>
_delay_ms():
/home/adam/.arduino15/packages/DxCore/tools/avr-gcc/7.3.0-atmel3.6.1-azduino7b1/avr/include/util/delay.h:187
     ff4:	8f e4       	ldi	r24, 0x4F	; 79
     ff6:	93 ec       	ldi	r25, 0xC3	; 195
     ff8:	01 97       	sbiw	r24, 0x01	; 1
     ffa:	f1 f7       	brne	.-4      	; 0xff8 <waitForAllTouchPadsReleased()+0xa>
     ffc:	00 c0       	rjmp	.+0      	; 0xffe <waitForAllTouchPadsReleased()+0x10>
     ffe:	00 00       	nop
    1000:	f6 cf       	rjmp	.-20     	; 0xfee <waitForAllTouchPadsReleased()>
_Z27waitForAllTouchPadsReleasedv():
/home/adam/bsides-leeds-2026-badge/firmware/firmware.ino:362
    delay(TOUCH_POLL_MS);
  }
}
    1002:	08 95       	ret

00001004 <__vector_14>:
__vector_14():
/home/adam/.arduino15/packages/megaTinyCore/hardware/megaavr/2.6.11/cores/megatinycore/wiring_micros_ISR.h:839
  #else
    ISR(MILLIS_TIMER_VECTOR, ISR_NAKED) {
      // Common Interrupt header for TCB, TCA and TCD;
      // Clears the Timer Interrupt flag and pushes the CPU Registers
      // 7 words / 7 clocks
      __asm__ __volatile__(
    1004:	8f 93       	push	r24
    1006:	81 e0       	ldi	r24, 0x01	; 1
    1008:	80 93 8d 0a 	sts	0x0A8D, r24	; 0x800a8d <digital_pin_to_bit_mask+0x7f6ab5>
    100c:	8f b7       	in	r24, 0x3f	; 63
    100e:	8f 93       	push	r24
    1010:	ef 93       	push	r30
    1012:	ff 93       	push	r31
/home/adam/.arduino15/packages/megaTinyCore/hardware/megaavr/2.6.11/cores/megatinycore/wiring_micros_ISR.h:950
        [MIINC]  "M" ((0x0000 - MILLIS_INC) & 0xFF),
        [MINCD]  "M" ((0xFFFF - MILLIS_INC) & 0xFF)
      );
  */

      __asm__ __volatile__(
    1014:	e1 ed       	ldi	r30, 0xD1	; 209
    1016:	fe e3       	ldi	r31, 0x3E	; 62
    1018:	9f 93       	push	r25
    101a:	68 94       	set
    101c:	8f ef       	ldi	r24, 0xFF	; 255
    101e:	0d c0       	rjmp	.+26     	; 0x103a <sub4>

00001020 <ovf_end>:
    1020:	e8 94       	clt
    1022:	84 81       	ldd	r24, Z+4	; 0x04
    1024:	95 81       	ldd	r25, Z+5	; 0x05
    1026:	80 5d       	subi	r24, 0xD0	; 208
    1028:	9c 4f       	sbci	r25, 0xFC	; 252
    102a:	84 83       	std	Z+4, r24	; 0x04
    102c:	95 83       	std	Z+5, r25	; 0x05
    102e:	88 5e       	subi	r24, 0xE8	; 232
    1030:	93 40       	sbci	r25, 0x03	; 3
    1032:	80 f0       	brcs	.+32     	; 0x1054 <sub_end>
    1034:	84 83       	std	Z+4, r24	; 0x04
    1036:	95 83       	std	Z+5, r25	; 0x05
    1038:	8f ef       	ldi	r24, 0xFF	; 255

0000103a <sub4>:
    103a:	90 81       	ld	r25, Z
    103c:	98 1b       	sub	r25, r24
    103e:	91 93       	st	Z+, r25
    1040:	90 81       	ld	r25, Z
    1042:	9f 4f       	sbci	r25, 0xFF	; 255
    1044:	91 93       	st	Z+, r25
    1046:	90 81       	ld	r25, Z
    1048:	9f 4f       	sbci	r25, 0xFF	; 255
    104a:	91 93       	st	Z+, r25
    104c:	90 81       	ld	r25, Z
    104e:	9f 4f       	sbci	r25, 0xFF	; 255
    1050:	91 93       	st	Z+, r25
    1052:	36 f3       	brts	.-52     	; 0x1020 <ovf_end>

00001054 <sub_end>:
    1054:	9f 91       	pop	r25
/home/adam/.arduino15/packages/megaTinyCore/hardware/megaavr/2.6.11/cores/megatinycore/wiring_micros_ISR.h:1012
        [MINCD]  "M" ((0xFFFF - MILLIS_INC) & 0xFF)
      );
    #endif /* (defined(MILLIS_USE_TIMERB0) || defined(MILLIS_USE_TIMERB1) || defined(MILLIS_USE_TIMERB2) || defined(MILLIS_USE_TIMERB3) || defined(MILLIS_USE_TIMERB4)) */
    // Common ISR Epilogue for TCA, TCB and TCD, popping register in reverse Order
    // 6 words, 14 clocks
    __asm__ __volatile__(
    1056:	ff 91       	pop	r31
    1058:	ef 91       	pop	r30
    105a:	8f 91       	pop	r24
    105c:	8f bf       	out	0x3f, r24	; 63
    105e:	8f 91       	pop	r24
    1060:	18 95       	reti

00001062 <__vector_17>:
__vector_17():
/home/adam/.arduino15/packages/megaTinyCore/hardware/megaavr/2.6.11/libraries/PTC/src/ptc.c:1110
  }
}


#if defined(__PTC_Tiny__)
ISR(ADC0_RESRDY_vect) {
    1062:	1f 92       	push	r1
    1064:	0f 92       	push	r0
    1066:	0f b6       	in	r0, 0x3f	; 63
    1068:	0f 92       	push	r0
    106a:	11 24       	eor	r1, r1
    106c:	2f 93       	push	r18
    106e:	3f 93       	push	r19
    1070:	4f 93       	push	r20
    1072:	5f 93       	push	r21
    1074:	6f 93       	push	r22
    1076:	7f 93       	push	r23
    1078:	8f 93       	push	r24
    107a:	9f 93       	push	r25
    107c:	af 93       	push	r26
    107e:	bf 93       	push	r27
    1080:	cf 93       	push	r28
    1082:	df 93       	push	r29
    1084:	ef 93       	push	r30
    1086:	ff 93       	push	r31
ptc_eoc():
/home/adam/.arduino15/packages/megaTinyCore/hardware/megaavr/2.6.11/libraries/PTC/src/ptc.c:1078
}

void ptc_eoc(void) {
  PTC_t *pPTC;
  volatile cap_sensor_t *pCurrentNode;  // volatile needed to pass type check
  _fastPtr_d(pPTC, &PTC);
    1088:	c0 e0       	ldi	r28, 0x00	; 0
    108a:	d6 e0       	ldi	r29, 0x06	; 6
/home/adam/.arduino15/packages/megaTinyCore/hardware/megaavr/2.6.11/libraries/PTC/src/ptc.c:1079
  _fastPtr_d(pCurrentNode, currConvNode);
    108c:	e0 91 41 3e 	lds	r30, 0x3E41	; 0x803e41 <currConvNode>
    1090:	f0 91 42 3e 	lds	r31, 0x3E42	; 0x803e42 <currConvNode+0x1>
/home/adam/.arduino15/packages/megaTinyCore/hardware/megaavr/2.6.11/libraries/PTC/src/ptc.c:1081

  if (NULL == pCurrentNode) {
    1094:	30 97       	sbiw	r30, 0x00	; 0
    1096:	f1 f0       	breq	.+60     	; 0x10d4 <__vector_17+0x72>
/home/adam/.arduino15/packages/megaTinyCore/hardware/megaavr/2.6.11/libraries/PTC/src/ptc.c:1085
    return;
  }

  pPTC->CTRLA = 0x00;
    1098:	18 82       	st	Y, r1
/home/adam/.arduino15/packages/megaTinyCore/hardware/megaavr/2.6.11/libraries/PTC/src/ptc.c:1086
  uint8_t flags = pPTC->INTFLAGS; // save the flags before they get cleared by RES read
    109a:	3b 85       	ldd	r19, Y+11	; 0x0b
/home/adam/.arduino15/packages/megaTinyCore/hardware/megaavr/2.6.11/libraries/PTC/src/ptc.c:1087
  uint16_t rawVal =  pPTC->RES;   // clears ISR flags
    109c:	88 89       	ldd	r24, Y+16	; 0x10
    109e:	99 89       	ldd	r25, Y+17	; 0x11
/home/adam/.arduino15/packages/megaTinyCore/hardware/megaavr/2.6.11/libraries/PTC/src/ptc.c:1088
  uint8_t oversampling = pCurrentNode->hw_gain_ovs  & 0x0F;
    10a0:	22 85       	ldd	r18, Z+10	; 0x0a
    10a2:	2f 70       	andi	r18, 0x0F	; 15
/home/adam/.arduino15/packages/megaTinyCore/hardware/megaavr/2.6.11/libraries/PTC/src/ptc.c:1089
  pCurrentNode->sensorData = rawVal >> oversampling;
    10a4:	02 c0       	rjmp	.+4      	; 0x10aa <__vector_17+0x48>
    10a6:	96 95       	lsr	r25
    10a8:	87 95       	ror	r24
    10aa:	2a 95       	dec	r18
    10ac:	e2 f7       	brpl	.-8      	; 0x10a6 <__vector_17+0x44>
    10ae:	85 87       	std	Z+13, r24	; 0x0d
    10b0:	96 87       	std	Z+14, r25	; 0x0e
/home/adam/.arduino15/packages/megaTinyCore/hardware/megaavr/2.6.11/libraries/PTC/src/ptc.c:1092

  //currConvNode->sensorData = pPTC->RES_TRUE;
  pCurrentNode->state.data_ready = 1;
    10b2:	84 85       	ldd	r24, Z+12	; 0x0c
    10b4:	88 60       	ori	r24, 0x08	; 8
    10b6:	84 87       	std	Z+12, r24	; 0x0c
/home/adam/.arduino15/packages/megaTinyCore/hardware/megaavr/2.6.11/libraries/PTC/src/ptc.c:1094

  if (pCurrentNode->state.low_power) {
    10b8:	84 85       	ldd	r24, Z+12	; 0x0c
    10ba:	82 ff       	sbrs	r24, 2
    10bc:	23 c0       	rjmp	.+70     	; 0x1104 <__vector_17+0xa2>
/home/adam/.arduino15/packages/megaTinyCore/hardware/megaavr/2.6.11/libraries/PTC/src/ptc.c:1096
    if (flags & ADC_WCMP_bm) {
      pCurrentNode->state.win_comp = 1;
    10be:	84 85       	ldd	r24, Z+12	; 0x0c
/home/adam/.arduino15/packages/megaTinyCore/hardware/megaavr/2.6.11/libraries/PTC/src/ptc.c:1095

  //currConvNode->sensorData = pPTC->RES_TRUE;
  pCurrentNode->state.data_ready = 1;

  if (pCurrentNode->state.low_power) {
    if (flags & ADC_WCMP_bm) {
    10c0:	31 ff       	sbrs	r19, 1
    10c2:	1b c0       	rjmp	.+54     	; 0x10fa <__vector_17+0x98>
/home/adam/.arduino15/packages/megaTinyCore/hardware/megaavr/2.6.11/libraries/PTC/src/ptc.c:1096
      pCurrentNode->state.win_comp = 1;
    10c4:	82 60       	ori	r24, 0x02	; 2
    10c6:	84 87       	std	Z+12, r24	; 0x0c
/home/adam/.arduino15/packages/megaTinyCore/hardware/megaavr/2.6.11/libraries/PTC/src/ptc.c:1097
      ptc_lib_state = PTC_LIB_CONV_WCMP;
    10c8:	80 e1       	ldi	r24, 0x10	; 16
    10ca:	90 e0       	ldi	r25, 0x00	; 0
/home/adam/.arduino15/packages/megaTinyCore/hardware/megaavr/2.6.11/libraries/PTC/src/ptc.c:1100
    } else {
      pCurrentNode->state.win_comp = 0;
      ptc_lib_state = PTC_LIB_CONV_LP;
    10cc:	80 93 3f 3e 	sts	0x3E3F, r24	; 0x803e3f <ptc_lib_state>
    10d0:	90 93 40 3e 	sts	0x3E40, r25	; 0x803e40 <ptc_lib_state+0x1>
__vector_17():
/home/adam/.arduino15/packages/megaTinyCore/hardware/megaavr/2.6.11/libraries/PTC/src/ptc.c:1112


#if defined(__PTC_Tiny__)
ISR(ADC0_RESRDY_vect) {
  ptc_eoc();
}
    10d4:	ff 91       	pop	r31
    10d6:	ef 91       	pop	r30
    10d8:	df 91       	pop	r29
    10da:	cf 91       	pop	r28
    10dc:	bf 91       	pop	r27
    10de:	af 91       	pop	r26
    10e0:	9f 91       	pop	r25
    10e2:	8f 91       	pop	r24
    10e4:	7f 91       	pop	r23
    10e6:	6f 91       	pop	r22
    10e8:	5f 91       	pop	r21
    10ea:	4f 91       	pop	r20
    10ec:	3f 91       	pop	r19
    10ee:	2f 91       	pop	r18
    10f0:	0f 90       	pop	r0
    10f2:	0f be       	out	0x3f, r0	; 63
    10f4:	0f 90       	pop	r0
    10f6:	1f 90       	pop	r1
    10f8:	18 95       	reti
ptc_eoc():
/home/adam/.arduino15/packages/megaTinyCore/hardware/megaavr/2.6.11/libraries/PTC/src/ptc.c:1099
  if (pCurrentNode->state.low_power) {
    if (flags & ADC_WCMP_bm) {
      pCurrentNode->state.win_comp = 1;
      ptc_lib_state = PTC_LIB_CONV_WCMP;
    } else {
      pCurrentNode->state.win_comp = 0;
    10fa:	8d 7f       	andi	r24, 0xFD	; 253
    10fc:	84 87       	std	Z+12, r24	; 0x0c
/home/adam/.arduino15/packages/megaTinyCore/hardware/megaavr/2.6.11/libraries/PTC/src/ptc.c:1100
      ptc_lib_state = PTC_LIB_CONV_LP;
    10fe:	88 e0       	ldi	r24, 0x08	; 8
    1100:	90 e0       	ldi	r25, 0x00	; 0
    1102:	e4 cf       	rjmp	.-56     	; 0x10cc <__vector_17+0x6a>
/home/adam/.arduino15/packages/megaTinyCore/hardware/megaavr/2.6.11/libraries/PTC/src/ptc.c:1104
    }

  } else {
    ptc_start_conversion(pCurrentNode->nextNode);
    1104:	80 81       	ld	r24, Z
    1106:	91 81       	ldd	r25, Z+1	; 0x01
    1108:	28 d9       	rcall	.-3504   	; 0x35a <ptc_start_conversion>
    110a:	e4 cf       	rjmp	.-56     	; 0x10d4 <__vector_17+0x72>

0000110c <__vector_7>:
__vector_7():
/home/adam/bsides-leeds-2026-badge/firmware/firmware.ino:245
    while (true) { }
  }
}

ISR(RTC_PIT_vect)
{
    110c:	1f 92       	push	r1
    110e:	0f 92       	push	r0
    1110:	0f b6       	in	r0, 0x3f	; 63
    1112:	0f 92       	push	r0
    1114:	11 24       	eor	r1, r1
    1116:	cf 92       	push	r12
    1118:	df 92       	push	r13
    111a:	ef 92       	push	r14
    111c:	ff 92       	push	r15
    111e:	2f 93       	push	r18
    1120:	3f 93       	push	r19
    1122:	4f 93       	push	r20
    1124:	5f 93       	push	r21
    1126:	6f 93       	push	r22
    1128:	7f 93       	push	r23
    112a:	8f 93       	push	r24
    112c:	9f 93       	push	r25
    112e:	af 93       	push	r26
    1130:	bf 93       	push	r27
    1132:	cf 93       	push	r28
    1134:	df 93       	push	r29
    1136:	ef 93       	push	r30
    1138:	ff 93       	push	r31
/home/adam/bsides-leeds-2026-badge/firmware/firmware.ino:246
  RTC.PITINTFLAGS = RTC_PI_bm;
    113a:	81 e0       	ldi	r24, 0x01	; 1
    113c:	80 93 53 01 	sts	0x0153, r24	; 0x800153 <digital_pin_to_bit_mask+0x7f617b>
/home/adam/bsides-leeds-2026-badge/firmware/firmware.ino:248

  if (shouldProcessPtc) {
    1140:	80 91 cf 3e 	lds	r24, 0x3ECF	; 0x803ecf <shouldProcessPtc>
    1144:	88 23       	and	r24, r24
    1146:	09 f4       	brne	.+2      	; 0x114a <__vector_7+0x3e>
    1148:	92 c0       	rjmp	.+292    	; 0x126e <__vector_7+0x162>
millis():
/home/adam/.arduino15/packages/megaTinyCore/hardware/megaavr/2.6.11/cores/megatinycore/wiring.c:167
  unsigned long millis() {
    // return timer_overflow_count; // for debugging timekeeping issues where these variables are out of scope from the sketch
    unsigned long m;
    // disable interrupts while we read timer_millis or we might get an
    // inconsistent value (e.g. in the middle of a write to timer_millis)
    uint8_t oldSREG = SREG;
    114a:	8f b7       	in	r24, 0x3f	; 63
/home/adam/.arduino15/packages/megaTinyCore/hardware/megaavr/2.6.11/cores/megatinycore/wiring.c:168
    cli();
    114c:	f8 94       	cli
/home/adam/.arduino15/packages/megaTinyCore/hardware/megaavr/2.6.11/cores/megatinycore/wiring.c:182
        if (!(rtccount & 0x8000)) m += 64000;
      }
      SREG = oldSREG;
      m += rtccount - (rtccount >> 5) + (rtccount >> 7);
    #else
      m = timingStruct.timer_millis;
    114e:	c0 90 d5 3e 	lds	r12, 0x3ED5	; 0x803ed5 <timingStruct+0x4>
    1152:	d0 90 d6 3e 	lds	r13, 0x3ED6	; 0x803ed6 <timingStruct+0x5>
    1156:	e0 90 d7 3e 	lds	r14, 0x3ED7	; 0x803ed7 <timingStruct+0x6>
    115a:	f0 90 d8 3e 	lds	r15, 0x3ED8	; 0x803ed8 <timingStruct+0x7>
/home/adam/.arduino15/packages/megaTinyCore/hardware/megaavr/2.6.11/cores/megatinycore/wiring.c:183
      SREG = oldSREG;
    115e:	8f bf       	out	0x3f, r24	; 63
ptc_process():
/home/adam/.arduino15/packages/megaTinyCore/hardware/megaavr/2.6.11/libraries/PTC/src/ptc.c:492


// pass the time, e.g. return value of millis or TCB value to the function instead of having a
// millis in here. improves portability
void ptc_process(uint16_t currTime) {
  if ((PTC_LIB_CONV_WCMP | PTC_LIB_CONV_LP) & ptc_lib_state) {
    1160:	80 91 3f 3e 	lds	r24, 0x3E3F	; 0x803e3f <ptc_lib_state>
    1164:	90 91 40 3e 	lds	r25, 0x3E40	; 0x803e40 <ptc_lib_state+0x1>
    1168:	88 71       	andi	r24, 0x18	; 24
    116a:	99 27       	eor	r25, r25
    116c:	89 2b       	or	r24, r25
    116e:	09 f4       	brne	.+2      	; 0x1172 <__vector_7+0x66>
    1170:	9f c0       	rjmp	.+318    	; 0x12b0 <__vector_7+0x1a4>
/home/adam/.arduino15/packages/megaTinyCore/hardware/megaavr/2.6.11/libraries/PTC/src/ptc.c:493
    if (NULL != lowPowerNode) {
    1172:	80 91 3b 3e 	lds	r24, 0x3E3B	; 0x803e3b <lowPowerNode>
    1176:	90 91 3c 3e 	lds	r25, 0x3E3C	; 0x803e3c <lowPowerNode+0x1>
    117a:	00 97       	sbiw	r24, 0x00	; 0
    117c:	a1 f0       	breq	.+40     	; 0x11a6 <__vector_7+0x9a>
/home/adam/.arduino15/packages/megaTinyCore/hardware/megaavr/2.6.11/libraries/PTC/src/ptc.c:494
      if (PTC_LIB_CONV_WCMP == ptc_lib_state) {
    117e:	20 91 3f 3e 	lds	r18, 0x3E3F	; 0x803e3f <ptc_lib_state>
    1182:	30 91 40 3e 	lds	r19, 0x3E40	; 0x803e40 <ptc_lib_state+0x1>
/home/adam/.arduino15/packages/megaTinyCore/hardware/megaavr/2.6.11/libraries/PTC/src/ptc.c:499
        ptc_event_cb_wake(PTC_CB_EVENT_WAKE_TOUCH, lowPowerNode);
      } else {
        ptc_event_cb_wake(PTC_CB_EVENT_WAKE_NO_TOUCH, lowPowerNode);
      }
      ptc_process_measurement(lowPowerNode);
    1186:	43 d9       	rcall	.-3450   	; 0x40e <ptc_process_measurement>
/home/adam/.arduino15/packages/megaTinyCore/hardware/megaavr/2.6.11/libraries/PTC/src/ptc.c:500
      if (NULL == lowPowerNode) { // Due to callbacks, low Power node may have been set to NULL by a disable
    1188:	80 91 3b 3e 	lds	r24, 0x3E3B	; 0x803e3b <lowPowerNode>
    118c:	90 91 3c 3e 	lds	r25, 0x3E3C	; 0x803e3c <lowPowerNode+0x1>
    1190:	89 2b       	or	r24, r25
    1192:	09 f0       	breq	.+2      	; 0x1196 <__vector_7+0x8a>
    1194:	83 c0       	rjmp	.+262    	; 0x129c <__vector_7+0x190>
/home/adam/.arduino15/packages/megaTinyCore/hardware/megaavr/2.6.11/libraries/PTC/src/ptc.c:501
        currConvType = NODE_TYPE_NOCONV_bm;
    1196:	10 92 3d 3e 	sts	0x3E3D, r1	; 0x803e3d <currConvType>
    119a:	10 92 3e 3e 	sts	0x3E3E, r1	; 0x803e3e <currConvType+0x1>
/home/adam/.arduino15/packages/megaTinyCore/hardware/megaavr/2.6.11/libraries/PTC/src/ptc.c:502
        ptc_lib_state = PTC_LIB_IDLE;
    119e:	10 92 3f 3e 	sts	0x3E3F, r1	; 0x803e3f <ptc_lib_state>
    11a2:	10 92 40 3e 	sts	0x3E40, r1	; 0x803e40 <ptc_lib_state+0x1>
/home/adam/.arduino15/packages/megaTinyCore/hardware/megaavr/2.6.11/libraries/PTC/src/ptc.c:517
    }
    ptc_event_cb_conversion((PTC_CB_EVENT_CONV_CMPL | currConvType), (cap_sensor_t *)currConvNode);
    currConvType = NODE_TYPE_NOCONV_bm;
  }

  if ((currTime - lastAcqTime) >= acqPeriod) {
    11a6:	80 91 03 3e 	lds	r24, 0x3E03	; 0x803e03 <lastAcqTime>
    11aa:	90 91 04 3e 	lds	r25, 0x3E04	; 0x803e04 <lastAcqTime+0x1>
    11ae:	c8 1a       	sub	r12, r24
    11b0:	d9 0a       	sbc	r13, r25
    11b2:	24 e1       	ldi	r18, 0x14	; 20
    11b4:	c2 16       	cp	r12, r18
    11b6:	d1 04       	cpc	r13, r1
    11b8:	08 f4       	brcc	.+2      	; 0x11bc <__vector_7+0xb0>
    11ba:	59 c0       	rjmp	.+178    	; 0x126e <__vector_7+0x162>
/home/adam/.arduino15/packages/megaTinyCore/hardware/megaavr/2.6.11/libraries/PTC/src/ptc.c:518
    lastAcqTime += acqPeriod;
    11bc:	44 96       	adiw	r24, 0x14	; 20
    11be:	80 93 03 3e 	sts	0x3E03, r24	; 0x803e03 <lastAcqTime>
    11c2:	90 93 04 3e 	sts	0x3E04, r25	; 0x803e04 <lastAcqTime+0x1>
/home/adam/.arduino15/packages/megaTinyCore/hardware/megaavr/2.6.11/libraries/PTC/src/ptc.c:519
    if (PTC_LIB_IDLE == ptc_lib_state) {
    11c6:	80 91 3f 3e 	lds	r24, 0x3E3F	; 0x803e3f <ptc_lib_state>
    11ca:	90 91 40 3e 	lds	r25, 0x3E40	; 0x803e40 <ptc_lib_state+0x1>
    11ce:	89 2b       	or	r24, r25
    11d0:	09 f0       	breq	.+2      	; 0x11d4 <__vector_7+0xc8>
    11d2:	4d c0       	rjmp	.+154    	; 0x126e <__vector_7+0x162>
ptc_init_conversion():
/home/adam/.arduino15/packages/megaTinyCore/hardware/megaavr/2.6.11/libraries/PTC/src/ptc.c:852
}


void ptc_init_conversion(uint8_t nodeType) {
  PTC_t *pPTC;
  _fastPtr_d(pPTC, &PTC);
    11d4:	e0 e0       	ldi	r30, 0x00	; 0
    11d6:	f6 e0       	ldi	r31, 0x06	; 6
/home/adam/.arduino15/packages/megaTinyCore/hardware/megaavr/2.6.11/libraries/PTC/src/ptc.c:854

  if (ptc_lib_state & (PTC_LIB_CONV_PROG | PTC_LIB_CONV_LP | PTC_LIB_CONV_WCMP | PTC_LIB_SUSPENDED)) {
    11d8:	80 91 3f 3e 	lds	r24, 0x3E3F	; 0x803e3f <ptc_lib_state>
    11dc:	90 91 40 3e 	lds	r25, 0x3E40	; 0x803e40 <ptc_lib_state+0x1>
    11e0:	89 79       	andi	r24, 0x99	; 153
    11e2:	99 27       	eor	r25, r25
    11e4:	89 2b       	or	r24, r25
    11e6:	09 f0       	breq	.+2      	; 0x11ea <__vector_7+0xde>
    11e8:	42 c0       	rjmp	.+132    	; 0x126e <__vector_7+0x162>
ptc_process():
/home/adam/.arduino15/packages/megaTinyCore/hardware/megaavr/2.6.11/libraries/PTC/src/ptc.c:522
  if ((currTime - lastAcqTime) >= acqPeriod) {
    lastAcqTime += acqPeriod;
    if (PTC_LIB_IDLE == ptc_lib_state) {
      uint8_t convType;
      if (nextConvType == 0) {
        convType = firstNode->type;
    11ea:	80 91 43 3e 	lds	r24, 0x3E43	; 0x803e43 <firstNode>
    11ee:	90 91 44 3e 	lds	r25, 0x3E44	; 0x803e44 <firstNode+0x1>
    11f2:	dc 01       	movw	r26, r24
    11f4:	12 96       	adiw	r26, 0x02	; 2
    11f6:	2d 91       	ld	r18, X+
    11f8:	3c 91       	ld	r19, X
ptc_init_conversion():
/home/adam/.arduino15/packages/megaTinyCore/hardware/megaavr/2.6.11/libraries/PTC/src/ptc.c:859
  if (ptc_lib_state & (PTC_LIB_CONV_PROG | PTC_LIB_CONV_LP | PTC_LIB_CONV_WCMP | PTC_LIB_SUSPENDED)) {
    return;
  }

  #if defined (__PTC_Tiny__)
  pPTC->CTRLP = 0x00;
    11fa:	10 8e       	std	Z+24, r1	; 0x18
/home/adam/.arduino15/packages/megaTinyCore/hardware/megaavr/2.6.11/libraries/PTC/src/ptc.c:861
  if (nodeType & NODE_MUTUAL_bm) {  /* NODE_MUTUAL */
    pPTC->CTRLP    = 0xC0 | 0x20;
    11fc:	40 ee       	ldi	r20, 0xE0	; 224
/home/adam/.arduino15/packages/megaTinyCore/hardware/megaavr/2.6.11/libraries/PTC/src/ptc.c:860
    return;
  }

  #if defined (__PTC_Tiny__)
  pPTC->CTRLP = 0x00;
  if (nodeType & NODE_MUTUAL_bm) {  /* NODE_MUTUAL */
    11fe:	20 fd       	sbrc	r18, 0
    1200:	76 c0       	rjmp	.+236    	; 0x12ee <__vector_7+0x1e2>
/home/adam/.arduino15/packages/megaTinyCore/hardware/megaavr/2.6.11/libraries/PTC/src/ptc.c:863
    pPTC->CTRLP    = 0xC0 | 0x20;
    pPTC->SHIELD  = 0x00;
  } else if (nodeType & NODE_SHIELD_bm) { /* NODE_SELFCAP */
    1202:	23 ff       	sbrs	r18, 3
    1204:	71 c0       	rjmp	.+226    	; 0x12e8 <__vector_7+0x1dc>
/home/adam/.arduino15/packages/megaTinyCore/hardware/megaavr/2.6.11/libraries/PTC/src/ptc.c:864
    pPTC->CTRLP  = 0x28;
    1206:	48 e2       	ldi	r20, 0x28	; 40
    1208:	40 8f       	std	Z+24, r20	; 0x18
/home/adam/.arduino15/packages/megaTinyCore/hardware/megaavr/2.6.11/libraries/PTC/src/ptc.c:865
    pPTC->SHIELD = 0x86;
    120a:	46 e8       	ldi	r20, 0x86	; 134
    120c:	46 8f       	std	Z+30, r20	; 0x1e
/home/adam/.arduino15/packages/megaTinyCore/hardware/megaavr/2.6.11/libraries/PTC/src/ptc.c:873
    pPTC->SHIELD = 0x00;
  } else {
    return;
  }

  pPTC->CTRLA = 0x00;
    120e:	10 82       	st	Z, r1
/home/adam/.arduino15/packages/megaTinyCore/hardware/megaavr/2.6.11/libraries/PTC/src/ptc.c:880
  uint8_t freq = freq_select;
  if (freq > 0x0F) {    /* FREQ_SELECT_15 */
    freq = ADC_ASDV_bm;
  }

  pPTC->CTRLD = freq;
    1210:	13 82       	std	Z+3, r1	; 0x03
/home/adam/.arduino15/packages/megaTinyCore/hardware/megaavr/2.6.11/libraries/PTC/src/ptc.c:881
  pPTC->INTFLAGS = ADC_RESRDY_bm | ADC_WCMP_bm; // clear ISR flags, if there were unhandled
    1212:	43 e0       	ldi	r20, 0x03	; 3
    1214:	43 87       	std	Z+11, r20	; 0x0b
/home/adam/.arduino15/packages/megaTinyCore/hardware/megaavr/2.6.11/libraries/PTC/src/ptc.c:883

  currConvType = nodeType;
    1216:	33 27       	eor	r19, r19
    1218:	20 93 3d 3e 	sts	0x3E3D, r18	; 0x803e3d <currConvType>
    121c:	30 93 3e 3e 	sts	0x3E3E, r19	; 0x803e3e <currConvType+0x1>
/home/adam/.arduino15/packages/megaTinyCore/hardware/megaavr/2.6.11/libraries/PTC/src/ptc.c:884
  if (NULL != lowPowerNode) {
    1220:	a0 91 3b 3e 	lds	r26, 0x3E3B	; 0x803e3b <lowPowerNode>
    1224:	b0 91 3c 3e 	lds	r27, 0x3E3C	; 0x803e3c <lowPowerNode+0x1>
    1228:	10 97       	sbiw	r26, 0x00	; 0
    122a:	09 f4       	brne	.+2      	; 0x122e <__vector_7+0x122>
    122c:	63 c0       	rjmp	.+198    	; 0x12f4 <__vector_7+0x1e8>
/home/adam/.arduino15/packages/megaTinyCore/hardware/megaavr/2.6.11/libraries/PTC/src/ptc.c:885
    pPTC->INTCTRL = ADC_WCMP_bm;  // Wakeup only above of window
    122e:	82 e0       	ldi	r24, 0x02	; 2
    1230:	82 87       	std	Z+10, r24	; 0x0a
/home/adam/.arduino15/packages/megaTinyCore/hardware/megaavr/2.6.11/libraries/PTC/src/ptc.c:886
    pPTC->CTRLE = ADC_WINCM_ABOVE_gc;
    1232:	84 83       	std	Z+4, r24	; 0x04
/home/adam/.arduino15/packages/megaTinyCore/hardware/megaavr/2.6.11/libraries/PTC/src/ptc.c:887
    pPTC->WINHT = (lowPowerNode->reference + lowPowerNode->touch_in_th) << (lowPowerNode->hw_gain_ovs & 0x0F);
    1234:	1f 96       	adiw	r26, 0x0f	; 15
    1236:	8d 91       	ld	r24, X+
    1238:	9c 91       	ld	r25, X
    123a:	50 97       	sbiw	r26, 0x10	; 16
    123c:	51 96       	adiw	r26, 0x11	; 17
    123e:	2d 91       	ld	r18, X+
    1240:	3c 91       	ld	r19, X
    1242:	52 97       	sbiw	r26, 0x12	; 18
    1244:	82 0f       	add	r24, r18
    1246:	93 1f       	adc	r25, r19
    1248:	1a 96       	adiw	r26, 0x0a	; 10
    124a:	2c 91       	ld	r18, X
    124c:	1a 97       	sbiw	r26, 0x0a	; 10
    124e:	2f 70       	andi	r18, 0x0F	; 15
    1250:	02 c0       	rjmp	.+4      	; 0x1256 <__vector_7+0x14a>
    1252:	88 0f       	add	r24, r24
    1254:	99 1f       	adc	r25, r25
    1256:	2a 95       	dec	r18
    1258:	e2 f7       	brpl	.-8      	; 0x1252 <__vector_7+0x146>
    125a:	84 8b       	std	Z+20, r24	; 0x14
    125c:	95 8b       	std	Z+21, r25	; 0x15
/home/adam/.arduino15/packages/megaTinyCore/hardware/megaavr/2.6.11/libraries/PTC/src/ptc.c:888
    ptc_lib_state = PTC_LIB_EVENT;
    125e:	84 e0       	ldi	r24, 0x04	; 4
    1260:	90 e0       	ldi	r25, 0x00	; 0
    1262:	80 93 3f 3e 	sts	0x3E3F, r24	; 0x803e3f <ptc_lib_state>
    1266:	90 93 40 3e 	sts	0x3E40, r25	; 0x803e40 <ptc_lib_state+0x1>
/home/adam/.arduino15/packages/megaTinyCore/hardware/megaavr/2.6.11/libraries/PTC/src/ptc.c:889
    ptc_start_conversion(lowPowerNode);
    126a:	cd 01       	movw	r24, r26
/home/adam/.arduino15/packages/megaTinyCore/hardware/megaavr/2.6.11/libraries/PTC/src/ptc.c:894
  } else {
    pPTC->INTCTRL = ADC_RESRDY_bm;
    pPTC->CTRLE = ADC_WINCM_NONE_gc;
    ptc_lib_state = PTC_LIB_CONV_PROG;
    ptc_start_conversion(firstNode);
    126c:	76 d8       	rcall	.-3860   	; 0x35a <ptc_start_conversion>
__vector_7():
/home/adam/bsides-leeds-2026-badge/firmware/firmware.ino:251
    ptc_process(millis());
  }
}
    126e:	ff 91       	pop	r31
    1270:	ef 91       	pop	r30
    1272:	df 91       	pop	r29
    1274:	cf 91       	pop	r28
    1276:	bf 91       	pop	r27
    1278:	af 91       	pop	r26
    127a:	9f 91       	pop	r25
    127c:	8f 91       	pop	r24
    127e:	7f 91       	pop	r23
    1280:	6f 91       	pop	r22
    1282:	5f 91       	pop	r21
    1284:	4f 91       	pop	r20
    1286:	3f 91       	pop	r19
    1288:	2f 91       	pop	r18
    128a:	ff 90       	pop	r15
    128c:	ef 90       	pop	r14
    128e:	df 90       	pop	r13
    1290:	cf 90       	pop	r12
    1292:	0f 90       	pop	r0
    1294:	0f be       	out	0x3f, r0	; 63
    1296:	0f 90       	pop	r0
    1298:	1f 90       	pop	r1
    129a:	18 95       	reti
ptc_process():
/home/adam/.arduino15/packages/megaTinyCore/hardware/megaavr/2.6.11/libraries/PTC/src/ptc.c:504
      ptc_process_measurement(lowPowerNode);
      if (NULL == lowPowerNode) { // Due to callbacks, low Power node may have been set to NULL by a disable
        currConvType = NODE_TYPE_NOCONV_bm;
        ptc_lib_state = PTC_LIB_IDLE;
      } else {
        PTC.INTCTRL = ADC_WCMP_bm;
    129c:	82 e0       	ldi	r24, 0x02	; 2
    129e:	80 93 0a 06 	sts	0x060A, r24	; 0x80060a <digital_pin_to_bit_mask+0x7f6632>
/home/adam/.arduino15/packages/megaTinyCore/hardware/megaavr/2.6.11/libraries/PTC/src/ptc.c:505
        ptc_lib_state = PTC_LIB_EVENT;
    12a2:	84 e0       	ldi	r24, 0x04	; 4
    12a4:	90 e0       	ldi	r25, 0x00	; 0
    12a6:	80 93 3f 3e 	sts	0x3E3F, r24	; 0x803e3f <ptc_lib_state>
    12aa:	90 93 40 3e 	sts	0x3E40, r25	; 0x803e40 <ptc_lib_state+0x1>
    12ae:	7b cf       	rjmp	.-266    	; 0x11a6 <__vector_7+0x9a>
/home/adam/.arduino15/packages/megaTinyCore/hardware/megaavr/2.6.11/libraries/PTC/src/ptc.c:508
      }
    }
  } else if (PTC_LIB_CONV_COMPL == ptc_lib_state) {
    12b0:	80 91 3f 3e 	lds	r24, 0x3E3F	; 0x803e3f <ptc_lib_state>
    12b4:	90 91 40 3e 	lds	r25, 0x3E40	; 0x803e40 <ptc_lib_state+0x1>
    12b8:	02 97       	sbiw	r24, 0x02	; 2
    12ba:	09 f0       	breq	.+2      	; 0x12be <__vector_7+0x1b2>
    12bc:	74 cf       	rjmp	.-280    	; 0x11a6 <__vector_7+0x9a>
/home/adam/.arduino15/packages/megaTinyCore/hardware/megaavr/2.6.11/libraries/PTC/src/ptc.c:509
    ptc_lib_state = PTC_LIB_IDLE;
    12be:	10 92 3f 3e 	sts	0x3E3F, r1	; 0x803e3f <ptc_lib_state>
    12c2:	10 92 40 3e 	sts	0x3E40, r1	; 0x803e40 <ptc_lib_state+0x1>
/home/adam/.arduino15/packages/megaTinyCore/hardware/megaavr/2.6.11/libraries/PTC/src/ptc.c:510
    for (cap_sensor_t *node = firstNode; node != NULL; node = node->nextNode) {
    12c6:	c0 91 43 3e 	lds	r28, 0x3E43	; 0x803e43 <firstNode>
    12ca:	d0 91 44 3e 	lds	r29, 0x3E44	; 0x803e44 <firstNode+0x1>
    12ce:	20 97       	sbiw	r28, 0x00	; 0
    12d0:	29 f4       	brne	.+10     	; 0x12dc <__vector_7+0x1d0>
/home/adam/.arduino15/packages/megaTinyCore/hardware/megaavr/2.6.11/libraries/PTC/src/ptc.c:514
      ptc_process_measurement(node);
    }
    ptc_event_cb_conversion((PTC_CB_EVENT_CONV_CMPL | currConvType), (cap_sensor_t *)currConvNode);
    currConvType = NODE_TYPE_NOCONV_bm;
    12d2:	10 92 3d 3e 	sts	0x3E3D, r1	; 0x803e3d <currConvType>
    12d6:	10 92 3e 3e 	sts	0x3E3E, r1	; 0x803e3e <currConvType+0x1>
    12da:	65 cf       	rjmp	.-310    	; 0x11a6 <__vector_7+0x9a>
/home/adam/.arduino15/packages/megaTinyCore/hardware/megaavr/2.6.11/libraries/PTC/src/ptc.c:511
      }
    }
  } else if (PTC_LIB_CONV_COMPL == ptc_lib_state) {
    ptc_lib_state = PTC_LIB_IDLE;
    for (cap_sensor_t *node = firstNode; node != NULL; node = node->nextNode) {
      ptc_process_measurement(node);
    12dc:	ce 01       	movw	r24, r28
    12de:	97 d8       	rcall	.-3794   	; 0x40e <ptc_process_measurement>
/home/adam/.arduino15/packages/megaTinyCore/hardware/megaavr/2.6.11/libraries/PTC/src/ptc.c:510
        ptc_lib_state = PTC_LIB_EVENT;
      }
    }
  } else if (PTC_LIB_CONV_COMPL == ptc_lib_state) {
    ptc_lib_state = PTC_LIB_IDLE;
    for (cap_sensor_t *node = firstNode; node != NULL; node = node->nextNode) {
    12e0:	09 90       	ld	r0, Y+
    12e2:	d8 81       	ld	r29, Y
    12e4:	c0 2d       	mov	r28, r0
    12e6:	f3 cf       	rjmp	.-26     	; 0x12ce <__vector_7+0x1c2>
ptc_init_conversion():
/home/adam/.arduino15/packages/megaTinyCore/hardware/megaavr/2.6.11/libraries/PTC/src/ptc.c:866
    pPTC->CTRLP    = 0xC0 | 0x20;
    pPTC->SHIELD  = 0x00;
  } else if (nodeType & NODE_SHIELD_bm) { /* NODE_SELFCAP */
    pPTC->CTRLP  = 0x28;
    pPTC->SHIELD = 0x86;
  } else if (nodeType & NODE_SELFCAP_bm) {
    12e8:	22 ff       	sbrs	r18, 2
    12ea:	c1 cf       	rjmp	.-126    	; 0x126e <__vector_7+0x162>
/home/adam/.arduino15/packages/megaTinyCore/hardware/megaavr/2.6.11/libraries/PTC/src/ptc.c:867
    pPTC->CTRLP  = 0x28;
    12ec:	48 e2       	ldi	r20, 0x28	; 40
    12ee:	40 8f       	std	Z+24, r20	; 0x18
/home/adam/.arduino15/packages/megaTinyCore/hardware/megaavr/2.6.11/libraries/PTC/src/ptc.c:868
    pPTC->SHIELD = 0x00;
    12f0:	16 8e       	std	Z+30, r1	; 0x1e
    12f2:	8d cf       	rjmp	.-230    	; 0x120e <__vector_7+0x102>
/home/adam/.arduino15/packages/megaTinyCore/hardware/megaavr/2.6.11/libraries/PTC/src/ptc.c:891
    pPTC->CTRLE = ADC_WINCM_ABOVE_gc;
    pPTC->WINHT = (lowPowerNode->reference + lowPowerNode->touch_in_th) << (lowPowerNode->hw_gain_ovs & 0x0F);
    ptc_lib_state = PTC_LIB_EVENT;
    ptc_start_conversion(lowPowerNode);
  } else {
    pPTC->INTCTRL = ADC_RESRDY_bm;
    12f4:	21 e0       	ldi	r18, 0x01	; 1
    12f6:	22 87       	std	Z+10, r18	; 0x0a
/home/adam/.arduino15/packages/megaTinyCore/hardware/megaavr/2.6.11/libraries/PTC/src/ptc.c:892
    pPTC->CTRLE = ADC_WINCM_NONE_gc;
    12f8:	14 82       	std	Z+4, r1	; 0x04
/home/adam/.arduino15/packages/megaTinyCore/hardware/megaavr/2.6.11/libraries/PTC/src/ptc.c:893
    ptc_lib_state = PTC_LIB_CONV_PROG;
    12fa:	21 e0       	ldi	r18, 0x01	; 1
    12fc:	30 e0       	ldi	r19, 0x00	; 0
    12fe:	20 93 3f 3e 	sts	0x3E3F, r18	; 0x803e3f <ptc_lib_state>
    1302:	30 93 40 3e 	sts	0x3E40, r19	; 0x803e40 <ptc_lib_state+0x1>
    1306:	b2 cf       	rjmp	.-156    	; 0x126c <__vector_7+0x160>

00001308 <__vector_3>:
__vector_3():
/home/adam/bsides-leeds-2026-badge/firmware/firmware.ino:235
  _PROTECTED_WRITE(WDT.CTRLA, WDT_PERIOD_8CLK_gc);
  while (true) { }
}

ISR(PORTA_PORT_vect)
{
    1308:	1f 92       	push	r1
    130a:	0f 92       	push	r0
    130c:	0f b6       	in	r0, 0x3f	; 63
    130e:	0f 92       	push	r0
    1310:	11 24       	eor	r1, r1
    1312:	8f 93       	push	r24
    1314:	9f 93       	push	r25
/home/adam/bsides-leeds-2026-badge/firmware/firmware.ino:236
  PORTA.INTFLAGS = PORT_INT3_bm;
    1316:	88 e0       	ldi	r24, 0x08	; 8
    1318:	80 93 09 04 	sts	0x0409, r24	; 0x800409 <digital_pin_to_bit_mask+0x7f6431>
/home/adam/bsides-leeds-2026-badge/firmware/firmware.ino:238

  if (rebootOnButtonPress) {
    131c:	80 91 02 3e 	lds	r24, 0x3E02	; 0x803e02 <__data_end>
    1320:	88 23       	and	r24, r24
    1322:	31 f0       	breq	.+12     	; 0x1330 <__vector_3+0x28>
/home/adam/bsides-leeds-2026-badge/firmware/firmware.ino:239
    _PROTECTED_WRITE(WDT.CTRLA, WDT_PERIOD_8CLK_gc);
    1324:	88 ed       	ldi	r24, 0xD8	; 216
    1326:	91 e0       	ldi	r25, 0x01	; 1
    1328:	84 bf       	out	0x34, r24	; 52
    132a:	90 93 00 01 	sts	0x0100, r25	; 0x800100 <digital_pin_to_bit_mask+0x7f6128>
    132e:	ff cf       	rjmp	.-2      	; 0x132e <__vector_3+0x26>
/home/adam/bsides-leeds-2026-badge/firmware/firmware.ino:242
    while (true) { }
  }
}
    1330:	9f 91       	pop	r25
    1332:	8f 91       	pop	r24
    1334:	0f 90       	pop	r0
    1336:	0f be       	out	0x3f, r0	; 63
    1338:	0f 90       	pop	r0
    133a:	1f 90       	pop	r1
    133c:	18 95       	reti

0000133e <main>:
main():
/home/adam/.arduino15/packages/megaTinyCore/hardware/megaavr/2.6.11/cores/megatinycore/main.cpp:49
 * called first in non-optiboot configurations (neither is needed on Optibooot configurations() *
 * an extra bit of initialization code in .init3 to fix the vectors and still happen if user    *
 * overrides main. In the past there was a USB-related function here, that is removed, as work  *
 * will be needed in any event at the core level if VUSB-based "stuff" arrives, but really I'm  *
 * just waiting for the DU-series now                                                           */
int main() {
    133e:	cf 93       	push	r28
    1340:	df 93       	push	r29
    1342:	cd b7       	in	r28, 0x3d	; 61
    1344:	de b7       	in	r29, 0x3e	; 62
    1346:	af 97       	sbiw	r28, 0x2f	; 47
    1348:	cd bf       	out	0x3d, r28	; 61
    134a:	de bf       	out	0x3e, r29	; 62
init_clock():
/home/adam/.arduino15/packages/megaTinyCore/hardware/megaavr/2.6.11/cores/megatinycore/wiring.c:460
  #if (CLOCK_SOURCE == 0)
    #if (defined(CLOCK_TUNE_INTERNAL))
      tune_internal(); // Will be inlined as only called once. Just too long and ugly to put two implementations in middle of this.
    #else
      #if defined(_MCLK_CTRLB) && defined(F_CPU) && defined(_MAIN_CLOCK_PRESCALER)
        _PROTECTED_WRITE(CLKCTRL_MCLKCTRLB,_MCLK_CTRLB);
    134c:	88 ed       	ldi	r24, 0xD8	; 216
    134e:	90 e0       	ldi	r25, 0x00	; 0
    1350:	84 bf       	out	0x34, r24	; 52
    1352:	90 93 61 00 	sts	0x0061, r25	; 0x800061 <digital_pin_to_bit_mask+0x7f6089>
init_ADC0():
/home/adam/.arduino15/packages/megaTinyCore/hardware/megaavr/2.6.11/cores/megatinycore/wiring.c:552


/********************************* ADC ****************************************/
void __attribute__((weak)) init_ADC0() {
  ADC_t* pADC;
  _fastPtr_d(pADC, &ADC0);
    1356:	e0 e0       	ldi	r30, 0x00	; 0
    1358:	f6 e0       	ldi	r31, 0x06	; 6
/home/adam/.arduino15/packages/megaTinyCore/hardware/megaavr/2.6.11/cores/megatinycore/wiring.c:573
   **************************************************************************/
    //                              30 MHz / 32 = 937 kHz,  32 MHz / 32 =  1 MHz.
    #if   F_CPU   > 24000000     // 24 MHz / 16 = 1.5 MHz,  25 MHz / 32 =  780 kHz
      pADC->CTRLC  = ADC_PRESC_DIV32_gc | ADC_REFSEL_VDDREF_gc | ADC_SAMPCAP_bm;
    #elif F_CPU  >= 12000000    // 16 MHz / 16 = 1.0 MHz,  20 MHz / 16 = 1.25 MHz
      pADC->CTRLC  = ADC_PRESC_DIV16_gc | ADC_REFSEL_VDDREF_gc | ADC_SAMPCAP_bm;
    135a:	83 e5       	ldi	r24, 0x53	; 83
    135c:	82 83       	std	Z+2, r24	; 0x02
/home/adam/.arduino15/packages/megaTinyCore/hardware/megaavr/2.6.11/cores/megatinycore/wiring.c:584
      pADC->CTRLC  =  ADC_PRESC_DIV2_gc | ADC_REFSEL_VDDREF_gc | ADC_SAMPCAP_bm;
    #endif
    #if   (F_CPU == 6000000 || F_CPU == 12000000 || F_CPU == 24000000 || F_CPU ==25000000)
      pADC->SAMPCTRL = (7); // 9 ADC clocks, 12 us
    #elif (F_CPU == 5000000 || F_CPU == 10000000 || F_CPU == 20000000)
      pADC->SAMPCTRL = (13);   // 15 ADC clock,s 12 us
    135e:	8d e0       	ldi	r24, 0x0D	; 13
    1360:	85 83       	std	Z+5, r24	; 0x05
/home/adam/.arduino15/packages/megaTinyCore/hardware/megaavr/2.6.11/cores/megatinycore/wiring.c:588
    #else
      pADC->SAMPCTRL = (10); // 12 ADC clocks, 12 us
    #endif
    pADC->CTRLD    = ADC_INITDLY_DLY16_gc;
    1362:	80 e2       	ldi	r24, 0x20	; 32
    1364:	83 83       	std	Z+3, r24	; 0x03
/home/adam/.arduino15/packages/megaTinyCore/hardware/megaavr/2.6.11/cores/megatinycore/wiring.c:589
    pADC->CTRLA    = ADC_ENABLE_bm;
    1366:	81 e0       	ldi	r24, 0x01	; 1
    1368:	80 83       	st	Z, r24
init_TCA0():
/home/adam/.arduino15/packages/megaTinyCore/hardware/megaavr/2.6.11/cores/megatinycore/wiring.c:680

void __attribute__((weak)) init_TCA0() {
  /*  TYPE A TIMER   */
  #if !defined(TCA_BUFFERED_3PIN)
    #if defined(PORTMUX_CTRLC)
      PORTMUX.CTRLC = TCA_PORTMUX;
    136a:	10 92 02 02 	sts	0x0202, r1	; 0x800202 <digital_pin_to_bit_mask+0x7f622a>
/home/adam/.arduino15/packages/megaTinyCore/hardware/megaavr/2.6.11/cores/megatinycore/wiring.c:684
    #else
      PORTMUX.TCAROUTEA = TCA_PORTMUX;
    #endif
    TCA0.SPLIT.CTRLD   = TCA_SPLIT_SPLITM_bm;
    136e:	80 93 03 0a 	sts	0x0A03, r24	; 0x800a03 <digital_pin_to_bit_mask+0x7f6a2b>
/home/adam/.arduino15/packages/megaTinyCore/hardware/megaavr/2.6.11/cores/megatinycore/wiring.c:685
    TCA0.SPLIT.LPER    = PWM_TIMER_PERIOD;
    1372:	9e ef       	ldi	r25, 0xFE	; 254
    1374:	90 93 26 0a 	sts	0x0A26, r25	; 0x800a26 <digital_pin_to_bit_mask+0x7f6a4e>
/home/adam/.arduino15/packages/megaTinyCore/hardware/megaavr/2.6.11/cores/megatinycore/wiring.c:686
    TCA0.SPLIT.HPER    = PWM_TIMER_PERIOD;
    1378:	90 93 27 0a 	sts	0x0A27, r25	; 0x800a27 <digital_pin_to_bit_mask+0x7f6a4f>
/home/adam/.arduino15/packages/megaTinyCore/hardware/megaavr/2.6.11/cores/megatinycore/wiring.c:687
    TCA0.SPLIT.CTRLA   = (_TIMERA_PRESCALER | TCA_SPLIT_ENABLE_bm);
    137c:	9b e0       	ldi	r25, 0x0B	; 11
    137e:	90 93 00 0a 	sts	0x0A00, r25	; 0x800a00 <digital_pin_to_bit_mask+0x7f6a28>
init_millis():
/home/adam/.arduino15/packages/megaTinyCore/hardware/megaavr/2.6.11/cores/megatinycore/wiring.c:345
      #else
        TCA0.SINGLE.INTCTRL = TCA_SINGLE_OVF_bm;
      #endif
    #elif defined(MILLIS_USE_TIMERD0)
      TCD_t* pTCD;
      _fastPtr_d(pTCD, &TCD0);
    1382:	e0 e8       	ldi	r30, 0x80	; 128
    1384:	fa e0       	ldi	r31, 0x0A	; 10
/home/adam/.arduino15/packages/megaTinyCore/hardware/megaavr/2.6.11/cores/megatinycore/wiring.c:346
      pTCD->CMPBCLR        = TIME_TRACKING_TIMER_PERIOD; // essentially, this is TOP
    1386:	2d ef       	ldi	r18, 0xFD	; 253
    1388:	31 e0       	ldi	r19, 0x01	; 1
    138a:	26 a7       	std	Z+46, r18	; 0x2e
    138c:	37 a7       	std	Z+47, r19	; 0x2f
/home/adam/.arduino15/packages/megaTinyCore/hardware/megaavr/2.6.11/cores/megatinycore/wiring.c:347
      pTCD->CTRLB          = 0x00; // oneramp mode
    138e:	11 82       	std	Z+1, r1	; 0x01
/home/adam/.arduino15/packages/megaTinyCore/hardware/megaavr/2.6.11/cores/megatinycore/wiring.c:348
      pTCD->CTRLC          = 0x80;
    1390:	90 e8       	ldi	r25, 0x80	; 128
    1392:	92 83       	std	Z+2, r25	; 0x02
/home/adam/.arduino15/packages/megaTinyCore/hardware/megaavr/2.6.11/cores/megatinycore/wiring.c:349
      pTCD->INTCTRL        = 0x01; // enable interrupt
    1394:	84 87       	std	Z+12, r24	; 0x0c
/home/adam/.arduino15/packages/megaTinyCore/hardware/megaavr/2.6.11/cores/megatinycore/wiring.c:350
      pTCD->CTRLA          = _TIMERD0_PRESCALER | 0x01; // set clock source and enable!
    1396:	81 e1       	ldi	r24, 0x11	; 17
    1398:	80 83       	st	Z, r24
main():
/home/adam/.arduino15/packages/megaTinyCore/hardware/megaavr/2.6.11/cores/megatinycore/main.cpp:53
  onBeforeInit(); // Emnpty callback called before init but after the .init stuff. First normal code executed
  init(); // Interrupts are turned on just prior to init() returning.
  initVariant();
  if (!onAfterInit()) sei();  // enable interrupts.
    139a:	78 94       	sei
setup():
/home/adam/bsides-leeds-2026-badge/firmware/firmware.ino:1355
  totalIntervalMs = 0;
}

void setup()
{
  pinMode(PIN_PA1, OUTPUT);
    139c:	61 e0       	ldi	r22, 0x01	; 1
    139e:	88 e0       	ldi	r24, 0x08	; 8
    13a0:	96 db       	rcall	.-2260   	; 0xace <pinMode>
/home/adam/bsides-leeds-2026-badge/firmware/firmware.ino:1356
  pinMode(PIN_PA2, OUTPUT);
    13a2:	61 e0       	ldi	r22, 0x01	; 1
    13a4:	89 e0       	ldi	r24, 0x09	; 9
    13a6:	93 db       	rcall	.-2266   	; 0xace <pinMode>
/home/adam/bsides-leeds-2026-badge/firmware/firmware.ino:1357
  pinMode(PIN_PB2, OUTPUT);
    13a8:	61 e0       	ldi	r22, 0x01	; 1
    13aa:	85 e0       	ldi	r24, 0x05	; 5
    13ac:	90 db       	rcall	.-2272   	; 0xace <pinMode>
/home/adam/bsides-leeds-2026-badge/firmware/firmware.ino:1358
  pinMode(PIN_PB3, OUTPUT);
    13ae:	61 e0       	ldi	r22, 0x01	; 1
    13b0:	84 e0       	ldi	r24, 0x04	; 4
    13b2:	8d db       	rcall	.-2278   	; 0xace <pinMode>
/home/adam/bsides-leeds-2026-badge/firmware/firmware.ino:1360

  pinMode(LED_DATA_PIN, OUTPUT);
    13b4:	61 e0       	ldi	r22, 0x01	; 1
    13b6:	84 e0       	ldi	r24, 0x04	; 4
    13b8:	8a db       	rcall	.-2284   	; 0xace <pinMode>
/home/adam/bsides-leeds-2026-badge/firmware/firmware.ino:1361
  pinMode(WAKE_BUTTON_PIN, INPUT_PULLUP);
    13ba:	62 e0       	ldi	r22, 0x02	; 2
    13bc:	8a e0       	ldi	r24, 0x0A	; 10
    13be:	87 db       	rcall	.-2290   	; 0xace <pinMode>
/home/adam/bsides-leeds-2026-badge/firmware/firmware.ino:1362
  digitalWrite(LED_POWER_PIN, HIGH);
    13c0:	81 e0       	ldi	r24, 0x01	; 1
    13c2:	65 db       	rcall	.-2358   	; 0xa8e <digitalWrite.constprop.10>
initRtc():
/home/adam/bsides-leeds-2026-badge/firmware/firmware.ino:185
  shouldProcessPtc = true;
}

void initRtc()
{
  while (RTC.STATUS > 0) {
    13c4:	80 91 41 01 	lds	r24, 0x0141	; 0x800141 <digital_pin_to_bit_mask+0x7f6169>
    13c8:	81 11       	cpse	r24, r1
    13ca:	fc cf       	rjmp	.-8      	; 0x13c4 <main+0x86>
/home/adam/bsides-leeds-2026-badge/firmware/firmware.ino:189
    ;
  }

  RTC.CLKSEL = RTC_CLKSEL_INT1K_gc;
    13cc:	81 e0       	ldi	r24, 0x01	; 1
    13ce:	80 93 47 01 	sts	0x0147, r24	; 0x800147 <digital_pin_to_bit_mask+0x7f616f>
    13d2:	80 91 43 3e 	lds	r24, 0x3E43	; 0x803e43 <firstNode>
    13d6:	90 91 44 3e 	lds	r25, 0x3E44	; 0x803e44 <firstNode+0x1>
    13da:	2e ea       	ldi	r18, 0xAE	; 174
    13dc:	3f e9       	ldi	r19, 0x9F	; 159
    13de:	e5 e4       	ldi	r30, 0x45	; 69
    13e0:	fe e3       	ldi	r31, 0x3E	; 62
ptc_add_node():
/home/adam/.arduino15/packages/megaTinyCore/hardware/megaavr/2.6.11/libraries/PTC/src/ptc.c:269
    return status;
  }


  memcpy(node->hw_xCh_bm, pCh, typesize * 2); // copies x and y channel
  node->type = type;
    13e2:	04 e0       	ldi	r16, 0x04	; 4
    13e4:	10 e0       	ldi	r17, 0x00	; 0
/home/adam/.arduino15/packages/megaTinyCore/hardware/megaavr/2.6.11/libraries/PTC/src/ptc.c:300
  if ((xCh | yCh) == 0) {         /* not a single pin selected */
    return PTC_LIB_BAD_ARGUMENT;
  }
  #endif

  node->hw_gain_ovs = NODE_GAIN(0, ADC_SAMPNUM_ACC16_gc);
    13e6:	b4 e0       	ldi	r27, 0x04	; 4
    13e8:	8b 2e       	mov	r8, r27
/home/adam/.arduino15/packages/megaTinyCore/hardware/megaavr/2.6.11/libraries/PTC/src/ptc.c:315
    }
    if (xCh != 0) {
      node->type = NODE_SELFCAP_SHIELD_bm;
    }

    node->touch_in_th = 20;
    13ea:	44 e1       	ldi	r20, 0x14	; 20
    13ec:	e4 2e       	mov	r14, r20
    13ee:	f1 2c       	mov	r15, r1
/home/adam/.arduino15/packages/megaTinyCore/hardware/megaavr/2.6.11/libraries/PTC/src/ptc.c:316
    node->touch_out_th = 10;
    13f0:	6a e0       	ldi	r22, 0x0A	; 10
    13f2:	70 e0       	ldi	r23, 0x00	; 0
/home/adam/.arduino15/packages/megaTinyCore/hardware/megaavr/2.6.11/libraries/PTC/src/ptc.c:317
    node->hw_compCaps = PTC_DEFAULT_SC_CC;  /* value from qTouch */
    13f4:	57 e6       	ldi	r21, 0x67	; 103
    13f6:	c5 2e       	mov	r12, r21
    13f8:	55 e0       	ldi	r21, 0x05	; 5
    13fa:	d5 2e       	mov	r13, r21
/home/adam/.arduino15/packages/megaTinyCore/hardware/megaavr/2.6.11/libraries/PTC/src/ptc.c:318
    node->hw_rsel_presc = NODE_RSEL_PRSC(RSEL_VAL_0, PTC_PRESC_DEFAULT);
    13fc:	a3 e0       	ldi	r26, 0x03	; 3
    13fe:	7a 2e       	mov	r7, r26
ptc_node_set_oversamples():
/home/adam/.arduino15/packages/megaTinyCore/hardware/megaavr/2.6.11/libraries/PTC/src/ptc.c:176
      badArg("Digital Gain too high. Max Digital Gain Value is 0x06 (equals 64x)");
    }
    return PTC_LIB_BAD_ARGUMENT;
  }
  uint8_t gain = node->hw_gain_ovs & 0xF0;
  node->hw_gain_ovs = gain | ovs;
    1400:	b4 ef       	ldi	r27, 0xF4	; 244
    1402:	6b 2e       	mov	r6, r27
ptc_node_set_thresholds():
/home/adam/.arduino15/packages/megaTinyCore/hardware/megaavr/2.6.11/libraries/PTC/src/ptc.c:106
uint8_t ptc_node_set_thresholds(cap_sensor_t *node, int16_t th_in, int16_t th_out) {
  if (NULL == node) {
    return PTC_LIB_BAD_POINTER;
  }
  if (th_in != 0) {
    node->touch_in_th = th_in;
    1404:	40 e5       	ldi	r20, 0x50	; 80
    1406:	a4 2e       	mov	r10, r20
    1408:	b1 2c       	mov	r11, r1
setupTouchButtons():
/home/adam/bsides-leeds-2026-badge/firmware/firmware.ino:133
{
  for (uint8_t buttonIndex = 0; buttonIndex < NUM_TOUCH_BUTTONS; ++buttonIndex) {
    const uint8_t result = ptc_add_selfcap_node(
      &touchButtons[buttonIndex],
      0,
      PIN_TO_PTC(TOUCH_BUTTON_PINS[buttonIndex])
    140a:	d9 01       	movw	r26, r18
    140c:	4d 91       	ld	r20, X+
    140e:	9d 01       	movw	r18, r26
main():
/home/adam/bsides-leeds-2026-badge/firmware/firmware.ino:130
}

void setupTouchButtons()
{
  for (uint8_t buttonIndex = 0; buttonIndex < NUM_TOUCH_BUTTONS; ++buttonIndex) {
    const uint8_t result = ptc_add_selfcap_node(
    1410:	91 2c       	mov	r9, r1
setupTouchButtons():
    1412:	4c 30       	cpi	r20, 0x0C	; 12
    1414:	28 f4       	brcc	.+10     	; 0x1420 <main+0xe2>
/home/adam/bsides-leeds-2026-badge/firmware/firmware.ino:133
      &touchButtons[buttonIndex],
      0,
      PIN_TO_PTC(TOUCH_BUTTON_PINS[buttonIndex])
    1416:	a4 2f       	mov	r26, r20
    1418:	b0 e0       	ldi	r27, 0x00	; 0
/home/adam/bsides-leeds-2026-badge/firmware/firmware.ino:130
}

void setupTouchButtons()
{
  for (uint8_t buttonIndex = 0; buttonIndex < NUM_TOUCH_BUTTONS; ++buttonIndex) {
    const uint8_t result = ptc_add_selfcap_node(
    141a:	ae 55       	subi	r26, 0x5E	; 94
    141c:	b0 46       	sbci	r27, 0x60	; 96
    141e:	9c 90       	ld	r9, X
ptc_add_node():
/home/adam/.arduino15/packages/megaTinyCore/hardware/megaavr/2.6.11/libraries/PTC/src/ptc.c:257

uint8_t ptc_add_node(cap_sensor_t *node, uint8_t *pCh, const uint8_t type) {
  const uint8_t typesize = sizeof(ptc_ch_arr_t);

  uint8_t hi_node = (uint8_t)((uint16_t)node >> 8);
  if ((hi_node < (uint8_t)(RAMSTART >> 8)) || (hi_node >= (uint8_t)(RAMEND >> 8))) {
    1420:	fe 33       	cpi	r31, 0x3E	; 62
    1422:	09 f0       	breq	.+2      	; 0x1426 <main+0xe8>
    1424:	7f c0       	rjmp	.+254    	; 0x1524 <main+0x1e6>
ptc_get_last_node():
/home/adam/.arduino15/packages/megaTinyCore/hardware/megaavr/2.6.11/libraries/PTC/src/ptc.c:1043



// returns the last node in the list, or NULL if list empty.
cap_sensor_t *ptc_get_last_node(void) {
  if (firstNode == NULL) {
    1426:	dc 01       	movw	r26, r24
    1428:	00 97       	sbiw	r24, 0x00	; 0
    142a:	09 f0       	breq	.+2      	; 0x142e <main+0xf0>
    142c:	72 c0       	rjmp	.+228    	; 0x1512 <main+0x1d4>
ptc_append_node():
/home/adam/.arduino15/packages/megaTinyCore/hardware/megaavr/2.6.11/libraries/PTC/src/ptc.c:1065
uint8_t ptc_append_node(cap_sensor_t *pNewNode) {

  cap_sensor_t *lastNode = ptc_get_last_node();
  if (lastNode == NULL) {
    firstNode = pNewNode;
    pNewNode->id = 0;
    142e:	14 82       	std	Z+4, r1	; 0x04
setupTouchButtons():
/home/adam/bsides-leeds-2026-badge/firmware/firmware.ino:130
    1430:	cf 01       	movw	r24, r30
ptc_add_node():
/home/adam/.arduino15/packages/megaTinyCore/hardware/megaavr/2.6.11/libraries/PTC/src/ptc.c:268
  if (status != PTC_LIB_SUCCESS) {
    return status;
  }


  memcpy(node->hw_xCh_bm, pCh, typesize * 2); // copies x and y channel
    1432:	15 82       	std	Z+5, r1	; 0x05
    1434:	96 82       	std	Z+6, r9	; 0x06
/home/adam/.arduino15/packages/megaTinyCore/hardware/megaavr/2.6.11/libraries/PTC/src/ptc.c:269
  node->type = type;
    1436:	02 83       	std	Z+2, r16	; 0x02
    1438:	13 83       	std	Z+3, r17	; 0x03
/home/adam/.arduino15/packages/megaTinyCore/hardware/megaavr/2.6.11/libraries/PTC/src/ptc.c:279
  if ((xCh & yCh) != 0) {           /* overlap */
    return PTC_LIB_BAD_ARGUMENT;
  }
  ptc_ch_bm_t pinmask = xCh | yCh;

  if (pinmask == 0) {               /* not a single pin selected */
    143a:	99 20       	and	r9, r9
    143c:	09 f4       	brne	.+2      	; 0x1440 <main+0x102>
    143e:	72 c0       	rjmp	.+228    	; 0x1524 <main+0x1e6>
/home/adam/.arduino15/packages/megaTinyCore/hardware/megaavr/2.6.11/libraries/PTC/src/ptc.c:300
  if ((xCh | yCh) == 0) {         /* not a single pin selected */
    return PTC_LIB_BAD_ARGUMENT;
  }
  #endif

  node->hw_gain_ovs = NODE_GAIN(0, ADC_SAMPNUM_ACC16_gc);
    1440:	82 86       	std	Z+10, r8	; 0x0a
/home/adam/.arduino15/packages/megaTinyCore/hardware/megaavr/2.6.11/libraries/PTC/src/ptc.c:315
    }
    if (xCh != 0) {
      node->type = NODE_SELFCAP_SHIELD_bm;
    }

    node->touch_in_th = 20;
    1442:	e1 8a       	std	Z+17, r14	; 0x11
    1444:	f2 8a       	std	Z+18, r15	; 0x12
/home/adam/.arduino15/packages/megaTinyCore/hardware/megaavr/2.6.11/libraries/PTC/src/ptc.c:316
    node->touch_out_th = 10;
    1446:	63 8b       	std	Z+19, r22	; 0x13
    1448:	74 8b       	std	Z+20, r23	; 0x14
/home/adam/.arduino15/packages/megaTinyCore/hardware/megaavr/2.6.11/libraries/PTC/src/ptc.c:317
    node->hw_compCaps = PTC_DEFAULT_SC_CC;  /* value from qTouch */
    144a:	c7 82       	std	Z+7, r12	; 0x07
    144c:	d0 86       	std	Z+8, r13	; 0x08
/home/adam/.arduino15/packages/megaTinyCore/hardware/megaavr/2.6.11/libraries/PTC/src/ptc.c:318
    node->hw_rsel_presc = NODE_RSEL_PRSC(RSEL_VAL_0, PTC_PRESC_DEFAULT);
    144e:	71 86       	std	Z+9, r7	; 0x09
/home/adam/.arduino15/packages/megaTinyCore/hardware/megaavr/2.6.11/libraries/PTC/src/ptc.c:322
  }

  #if defined(__PTC_Tiny__)
  PTC.PIN_OVR |= pinmask;
    1450:	40 91 22 06 	lds	r20, 0x0622	; 0x800622 <digital_pin_to_bit_mask+0x7f664a>
    1454:	50 91 23 06 	lds	r21, 0x0623	; 0x800623 <digital_pin_to_bit_mask+0x7f664b>
    1458:	49 29       	or	r20, r9
    145a:	40 93 22 06 	sts	0x0622, r20	; 0x800622 <digital_pin_to_bit_mask+0x7f664a>
    145e:	50 93 23 06 	sts	0x0623, r21	; 0x800623 <digital_pin_to_bit_mask+0x7f664b>
    1462:	4c e9       	ldi	r20, 0x9C	; 156
    1464:	5f e9       	ldi	r21, 0x9F	; 159
    1466:	a6 e0       	ldi	r26, 0x06	; 6
    1468:	5a 2e       	mov	r5, r26
/home/adam/.arduino15/packages/megaTinyCore/hardware/megaavr/2.6.11/libraries/PTC/src/ptc.c:328
  uint8_t *pin_lut = (uint8_t *)ptc_ch_to_pin;
  for (uint8_t i = 0; i < sizeof(ptc_ch_to_pin); i++) { /* 6 or 14 iterations */
    uint8_t offset = *(pin_lut++);
    uint16_t basePointer = (uint16_t)&PORTA;
    uint8_t *portSettings = (uint8_t *)(offset + basePointer);
    if ((uint8_t)pinmask & 0x01) {
    146a:	90 fe       	sbrs	r9, 0
    146c:	06 c0       	rjmp	.+12     	; 0x147a <main+0x13c>
/home/adam/.arduino15/packages/megaTinyCore/hardware/megaavr/2.6.11/libraries/PTC/src/ptc.c:327
  PTC.PIN_OVR |= pinmask;
  uint8_t *pin_lut = (uint8_t *)ptc_ch_to_pin;
  for (uint8_t i = 0; i < sizeof(ptc_ch_to_pin); i++) { /* 6 or 14 iterations */
    uint8_t offset = *(pin_lut++);
    uint16_t basePointer = (uint16_t)&PORTA;
    uint8_t *portSettings = (uint8_t *)(offset + basePointer);
    146e:	da 01       	movw	r26, r20
    1470:	4c 90       	ld	r4, X
    1472:	a4 2d       	mov	r26, r4
    1474:	b0 e0       	ldi	r27, 0x00	; 0
/home/adam/.arduino15/packages/megaTinyCore/hardware/megaavr/2.6.11/libraries/PTC/src/ptc.c:329
    if ((uint8_t)pinmask & 0x01) {
      (*portSettings) = PORT_ISC_INPUT_DISABLE_gc;
    1476:	bc 5f       	subi	r27, 0xFC	; 252
    1478:	8c 92       	st	X, r8
/home/adam/.arduino15/packages/megaTinyCore/hardware/megaavr/2.6.11/libraries/PTC/src/ptc.c:331
    }
    pinmask >>= 1;
    147a:	96 94       	lsr	r9
    147c:	5a 94       	dec	r5
    147e:	4f 5f       	subi	r20, 0xFF	; 255
    1480:	5f 4f       	sbci	r21, 0xFF	; 255
/home/adam/.arduino15/packages/megaTinyCore/hardware/megaavr/2.6.11/libraries/PTC/src/ptc.c:324
  }

  #if defined(__PTC_Tiny__)
  PTC.PIN_OVR |= pinmask;
  uint8_t *pin_lut = (uint8_t *)ptc_ch_to_pin;
  for (uint8_t i = 0; i < sizeof(ptc_ch_to_pin); i++) { /* 6 or 14 iterations */
    1482:	51 10       	cpse	r5, r1
    1484:	f2 cf       	rjmp	.-28     	; 0x146a <main+0x12c>
ptc_node_set_oversamples():
/home/adam/.arduino15/packages/megaTinyCore/hardware/megaavr/2.6.11/libraries/PTC/src/ptc.c:176
      badArg("Digital Gain too high. Max Digital Gain Value is 0x06 (equals 64x)");
    }
    return PTC_LIB_BAD_ARGUMENT;
  }
  uint8_t gain = node->hw_gain_ovs & 0xF0;
  node->hw_gain_ovs = gain | ovs;
    1486:	62 86       	std	Z+10, r6	; 0x0a
ptc_node_set_thresholds():
/home/adam/.arduino15/packages/megaTinyCore/hardware/megaavr/2.6.11/libraries/PTC/src/ptc.c:106
uint8_t ptc_node_set_thresholds(cap_sensor_t *node, int16_t th_in, int16_t th_out) {
  if (NULL == node) {
    return PTC_LIB_BAD_POINTER;
  }
  if (th_in != 0) {
    node->touch_in_th = th_in;
    1488:	a1 8a       	std	Z+17, r10	; 0x11
    148a:	b2 8a       	std	Z+18, r11	; 0x12
/home/adam/.arduino15/packages/megaTinyCore/hardware/megaavr/2.6.11/libraries/PTC/src/ptc.c:109
  }
  if (th_out != 0) {
    node->touch_out_th = th_out;
    148c:	63 8b       	std	Z+19, r22	; 0x13
    148e:	74 8b       	std	Z+20, r23	; 0x14
    1490:	77 96       	adiw	r30, 0x17	; 23
setupTouchButtons():
/home/adam/bsides-leeds-2026-badge/firmware/firmware.ino:129
  return pressedMask;
}

void setupTouchButtons()
{
  for (uint8_t buttonIndex = 0; buttonIndex < NUM_TOUCH_BUTTONS; ++buttonIndex) {
    1492:	4f e9       	ldi	r20, 0x9F	; 159
    1494:	24 3b       	cpi	r18, 0xB4	; 180
    1496:	34 07       	cpc	r19, r20
    1498:	09 f0       	breq	.+2      	; 0x149c <main+0x15e>
    149a:	b7 cf       	rjmp	.-146    	; 0x140a <main+0xcc>
    149c:	80 93 43 3e 	sts	0x3E43, r24	; 0x803e43 <firstNode>
    14a0:	90 93 44 3e 	sts	0x3E44, r25	; 0x803e44 <firstNode+0x1>
operator*():
/home/adam/.arduino15/packages/megaTinyCore/hardware/megaavr/2.6.11/libraries/EEPROM/src/EEPROM.h:62
  EERef(const INDEXDATATYPE index)
    : index(index)                 {}

  // Access/read members.
  uint8_t operator * () const            {
    return (*(uint8_t *)((uint16_t)(MAPPED_EEPROM_START + (index & EEPROM_INDEX_MASK))));
    14a4:	80 91 00 14 	lds	r24, 0x1400	; 0x801400 <digital_pin_to_bit_mask+0x7f7428>
setup():
/home/adam/bsides-leeds-2026-badge/firmware/firmware.ino:1367
  digitalWrite(LED_POWER_PIN, HIGH);

  initRtc();
  setupTouchButtons();

  state = EEPROM.read(0);
    14a8:	80 93 d0 3e 	sts	0x3ED0, r24	; 0x803ed0 <state>
enableRtcPtc():
/home/adam/bsides-leeds-2026-badge/firmware/firmware.ino:178
  shouldProcessPtc = false;
}

void enableRtcPtc(uint8_t period = RTC_PERIOD_CYC16_gc)
{
  RTC.PITINTCTRL = RTC_PI_bm;
    14ac:	81 e0       	ldi	r24, 0x01	; 1
    14ae:	80 93 52 01 	sts	0x0152, r24	; 0x800152 <digital_pin_to_bit_mask+0x7f617a>
/home/adam/bsides-leeds-2026-badge/firmware/firmware.ino:179
  RTC.PITCTRLA = period | RTC_PITEN_bm;
    14b2:	99 e1       	ldi	r25, 0x19	; 25
    14b4:	90 93 50 01 	sts	0x0150, r25	; 0x800150 <digital_pin_to_bit_mask+0x7f6178>
/home/adam/bsides-leeds-2026-badge/firmware/firmware.ino:180
  shouldProcessPtc = true;
    14b8:	80 93 cf 3e 	sts	0x3ECF, r24	; 0x803ecf <shouldProcessPtc>
loop():
/home/adam/bsides-leeds-2026-badge/firmware/firmware.ino:1377
  ledStrip.begin();
  enableRtcPtc();

  uint16_t animationStep = 0;
  uint8_t animationMode = 5;
  uint32_t totalIntervalMs = 0;
    14bc:	41 2c       	mov	r4, r1
    14be:	51 2c       	mov	r5, r1
    14c0:	32 01       	movw	r6, r4
/home/adam/bsides-leeds-2026-badge/firmware/firmware.ino:1376
{
  ledStrip.begin();
  enableRtcPtc();

  uint16_t animationStep = 0;
  uint8_t animationMode = 5;
    14c2:	e5 e0       	ldi	r30, 0x05	; 5
    14c4:	2e 2e       	mov	r2, r30
/home/adam/bsides-leeds-2026-badge/firmware/firmware.ino:1375
void loop()
{
  ledStrip.begin();
  enableRtcPtc();

  uint16_t animationStep = 0;
    14c6:	f1 2c       	mov	r15, r1
    14c8:	e1 2c       	mov	r14, r1
playStopTheLightTwoPlayer():
/home/adam/bsides-leeds-2026-badge/firmware/firmware.ino:599
    if (rightActive) {
      if (rightPassed) {
        rightScore = level + 1;
      } else {
        rightActive = false;
        flashPlayerEye(PLAYER_RIGHT, COLOR_RED);
    14ca:	30 90 b7 9f 	lds	r3, 0x9FB7	; 0x809fb7 <__bss_end+0x60c7>
    14ce:	b0 91 b8 9f 	lds	r27, 0x9FB8	; 0x809fb8 <__bss_end+0x60c8>
    14d2:	b8 8f       	std	Y+24, r27	; 0x18
    14d4:	e0 91 b9 9f 	lds	r30, 0x9FB9	; 0x809fb9 <__bss_end+0x60c9>
    14d8:	e9 8f       	std	Y+25, r30	; 0x19
/home/adam/bsides-leeds-2026-badge/firmware/firmware.ino:590
    if (leftActive) {
      if (leftPassed) {
        leftScore = level + 1;
      } else {
        leftActive = false;
        flashPlayerEye(PLAYER_LEFT, COLOR_RED);
    14da:	3f a2       	std	Y+39, r3	; 0x27
    14dc:	b8 a7       	std	Y+40, r27	; 0x28
    14de:	e9 a7       	std	Y+41, r30	; 0x29
playFollowTheSequenceTwoPlayer():
/home/adam/bsides-leeds-2026-badge/firmware/firmware.ino:868
      if (playFollowTheSequenceLevelForPlayer(PLAYER_RIGHT, rightSequence, level)) {
        rightScore = level;
        flashPlayerEye(PLAYER_RIGHT, COLOR_GREEN, 1);
      } else {
        rightActive = false;
        flashPlayerEye(PLAYER_RIGHT, COLOR_RED);
    14e0:	3a a6       	std	Y+42, r3	; 0x2a
    14e2:	bb a7       	std	Y+43, r27	; 0x2b
    14e4:	ec a7       	std	Y+44, r30	; 0x2c
showFailure():
/home/adam/bsides-leeds-2026-badge/firmware/firmware.ino:340
  delay(50);
}

void showFailure()
{
  flashNotification(COLOR_RED);
    14e6:	3d a6       	std	Y+45, r3	; 0x2d
    14e8:	be a7       	std	Y+46, r27	; 0x2e
    14ea:	ef a7       	std	Y+47, r30	; 0x2f
runAnimationMode():
/home/adam/bsides-leeds-2026-badge/firmware/firmware.ino:1268
}


int runAnimationMode(uint8_t mode, uint16_t step)
{
  switch (mode) {
    14ec:	ef ef       	ldi	r30, 0xFF	; 255
    14ee:	e2 0d       	add	r30, r2
    14f0:	ea 30       	cpi	r30, 0x0A	; 10
    14f2:	08 f5       	brcc	.+66     	; 0x1536 <main+0x1f8>
    14f4:	f0 e0       	ldi	r31, 0x00	; 0
    14f6:	e2 58       	subi	r30, 0x82	; 130
    14f8:	f5 4f       	sbci	r31, 0xF5	; 245
    14fa:	09 94       	ijmp
    14fc:	27 c0       	rjmp	.+78     	; 0x154c <main+0x20e>
    14fe:	3d c0       	rjmp	.+122    	; 0x157a <main+0x23c>
    1500:	41 c0       	rjmp	.+130    	; 0x1584 <main+0x246>
    1502:	47 c0       	rjmp	.+142    	; 0x1592 <main+0x254>
    1504:	49 c0       	rjmp	.+146    	; 0x1598 <main+0x25a>
    1506:	9b c0       	rjmp	.+310    	; 0x163e <main+0x300>
    1508:	b5 c0       	rjmp	.+362    	; 0x1674 <main+0x336>
    150a:	d1 c0       	rjmp	.+418    	; 0x16ae <main+0x370>
    150c:	e8 c0       	rjmp	.+464    	; 0x16de <main+0x3a0>
    150e:	1a c1       	rjmp	.+564    	; 0x1744 <main+0x406>
ptc_get_last_node():
/home/adam/.arduino15/packages/megaTinyCore/hardware/megaavr/2.6.11/libraries/PTC/src/ptc.c:1050
  }

  cap_sensor_t *node = firstNode;
  while (1) {
    cap_sensor_t *nextNode = node->nextNode;
    if (nextNode == NULL) {
    1510:	da 01       	movw	r26, r20
/home/adam/.arduino15/packages/megaTinyCore/hardware/megaavr/2.6.11/libraries/PTC/src/ptc.c:1049
    return NULL;
  }

  cap_sensor_t *node = firstNode;
  while (1) {
    cap_sensor_t *nextNode = node->nextNode;
    1512:	4d 91       	ld	r20, X+
    1514:	5c 91       	ld	r21, X
    1516:	11 97       	sbiw	r26, 0x01	; 1
/home/adam/.arduino15/packages/megaTinyCore/hardware/megaavr/2.6.11/libraries/PTC/src/ptc.c:1050
    if (nextNode == NULL) {
    1518:	41 15       	cp	r20, r1
    151a:	51 05       	cpc	r21, r1
    151c:	c9 f7       	brne	.-14     	; 0x1510 <main+0x1d2>
ptc_append_node():
/home/adam/.arduino15/packages/megaTinyCore/hardware/megaavr/2.6.11/libraries/PTC/src/ptc.c:1066

  cap_sensor_t *lastNode = ptc_get_last_node();
  if (lastNode == NULL) {
    firstNode = pNewNode;
    pNewNode->id = 0;
  } else if (lastNode != pNewNode) {  // Make sure we don't create an endless loop on accident
    151e:	ea 17       	cp	r30, r26
    1520:	fb 07       	cpc	r31, r27
    1522:	09 f4       	brne	.+2      	; 0x1526 <main+0x1e8>
    1524:	ff cf       	rjmp	.-2      	; 0x1524 <main+0x1e6>
/home/adam/.arduino15/packages/megaTinyCore/hardware/megaavr/2.6.11/libraries/PTC/src/ptc.c:1067
    lastNode->nextNode = pNewNode;
    1526:	ed 93       	st	X+, r30
    1528:	fc 93       	st	X, r31
    152a:	11 97       	sbiw	r26, 0x01	; 1
/home/adam/.arduino15/packages/megaTinyCore/hardware/megaavr/2.6.11/libraries/PTC/src/ptc.c:1068
    pNewNode->id = lastNode->id + 1;
    152c:	14 96       	adiw	r26, 0x04	; 4
    152e:	4c 91       	ld	r20, X
    1530:	4f 5f       	subi	r20, 0xFF	; 255
    1532:	44 83       	std	Z+4, r20	; 0x04
    1534:	7e cf       	rjmp	.-260    	; 0x1432 <main+0xf4>
runAnimationMode():
/home/adam/bsides-leeds-2026-badge/firmware/firmware.ino:1270
    case 0:
      return knightRider(step, 0, 10, 0);
    1536:	4a e0       	ldi	r20, 0x0A	; 10
    1538:	60 e0       	ldi	r22, 0x00	; 0
    153a:	c7 01       	movw	r24, r14
    153c:	af d9       	rcall	.-3234   	; 0x89c <knightRider(unsigned int, unsigned char, unsigned char, unsigned char) [clone .constprop.2]>
    153e:	08 2f       	mov	r16, r24
    1540:	10 e0       	ldi	r17, 0x00	; 0
    1542:	21 2c       	mov	r2, r1
loop():
/home/adam/bsides-leeds-2026-badge/firmware/firmware.ino:1382
  uint32_t totalIntervalMs = 0;

  while (true) {
    int intervalMs = runAnimationMode(animationMode, animationStep);

    if (intervalMs == 0) {
    1544:	01 15       	cp	r16, r1
    1546:	11 05       	cpc	r17, r1
    1548:	59 f1       	breq	.+86     	; 0x15a0 <main+0x262>
    154a:	2d c0       	rjmp	.+90     	; 0x15a6 <main+0x268>
breath():
/home/adam/bsides-leeds-2026-badge/firmware/firmware.ino:1187
  return ret;
}

uint8_t breath(uint16_t step, uint8_t r, uint8_t g, uint8_t b )
{
  step = step % 60;
    154c:	2c e3       	ldi	r18, 0x3C	; 60
    154e:	30 e0       	ldi	r19, 0x00	; 0
    1550:	c7 01       	movw	r24, r14
    1552:	b9 01       	movw	r22, r18
    1554:	de d4       	rcall	.+2492   	; 0x1f12 <__udivmodhi4>
    1556:	8c 01       	movw	r16, r24
/home/adam/bsides-leeds-2026-badge/firmware/firmware.ino:1188
  if (step > 30)
    1558:	4f 97       	sbiw	r24, 0x1f	; 31
    155a:	20 f0       	brcs	.+8      	; 0x1564 <main+0x226>
/home/adam/bsides-leeds-2026-badge/firmware/firmware.ino:1190
  {
    step = 60 - step;
    155c:	c9 01       	movw	r24, r18
    155e:	80 1b       	sub	r24, r16
    1560:	91 0b       	sbc	r25, r17
    1562:	8c 01       	movw	r16, r24
/home/adam/bsides-leeds-2026-badge/firmware/firmware.ino:1192
  }
  setAllLeds(r * step, g * step, b * step, true);
    1564:	21 e0       	ldi	r18, 0x01	; 1
    1566:	40 e0       	ldi	r20, 0x00	; 0
    1568:	60 e0       	ldi	r22, 0x00	; 0
    156a:	80 2f       	mov	r24, r16
    156c:	45 d9       	rcall	.-3446   	; 0x7f8 <setAllLeds(unsigned char, unsigned char, unsigned char, bool)>
/home/adam/bsides-leeds-2026-badge/firmware/firmware.ino:1193
  if (step == 0 )
    156e:	01 2b       	or	r16, r17
    1570:	09 f0       	breq	.+2      	; 0x1574 <main+0x236>
    1572:	9b c0       	rjmp	.+310    	; 0x16aa <main+0x36c>
main():
/home/adam/bsides-leeds-2026-badge/firmware/firmware.ino:1195
  {
    return 200;
    1574:	08 ec       	ldi	r16, 0xC8	; 200
runAnimationMode():
/home/adam/bsides-leeds-2026-badge/firmware/firmware.ino:1287
    case 6:
      if ((state & B00000010) != 0) { return 0; };
      return nuclearMode(step, 3, 0, 0, 0, 10, 20, 0, 150 );
    case 7:
      if ((state & B00000100) != 0) { return 0; };
      return breath(step, 50, 1, 40); // patched out york rose
    1576:	10 e0       	ldi	r17, 0x00	; 0
    1578:	16 c0       	rjmp	.+44     	; 0x15a6 <main+0x268>
/home/adam/bsides-leeds-2026-badge/firmware/firmware.ino:1274
    case 0:
      return knightRider(step, 0, 10, 0);
    case 1:
      return breath(step, 1, 0 , 0);
    case 2:
      return loopingEyes(step, 0, 0, 10);
    157a:	4a e0       	ldi	r20, 0x0A	; 10
    157c:	60 e0       	ldi	r22, 0x00	; 0
/home/adam/bsides-leeds-2026-badge/firmware/firmware.ino:1278
    case 3:
      return knightRider(step, 10, 0, 0);
    case 4:
      return loopingEyes(step, 10, 0, 0);
    157e:	c7 01       	movw	r24, r14
    1580:	66 d9       	rcall	.-3380   	; 0x84e <loopingEyes(unsigned int, unsigned char, unsigned char, unsigned char) [clone .constprop.7]>
    1582:	04 c0       	rjmp	.+8      	; 0x158c <main+0x24e>
/home/adam/bsides-leeds-2026-badge/firmware/firmware.ino:1276
    case 1:
      return breath(step, 1, 0 , 0);
    case 2:
      return loopingEyes(step, 0, 0, 10);
    case 3:
      return knightRider(step, 10, 0, 0);
    1584:	40 e0       	ldi	r20, 0x00	; 0
    1586:	6a e0       	ldi	r22, 0x0A	; 10
    1588:	c7 01       	movw	r24, r14
    158a:	88 d9       	rcall	.-3312   	; 0x89c <knightRider(unsigned int, unsigned char, unsigned char, unsigned char) [clone .constprop.2]>
    158c:	08 2f       	mov	r16, r24
    158e:	10 e0       	ldi	r17, 0x00	; 0
    1590:	d9 cf       	rjmp	.-78     	; 0x1544 <main+0x206>
/home/adam/bsides-leeds-2026-badge/firmware/firmware.ino:1278
    case 4:
      return loopingEyes(step, 10, 0, 0);
    1592:	40 e0       	ldi	r20, 0x00	; 0
    1594:	6a e0       	ldi	r22, 0x0A	; 10
    1596:	f3 cf       	rjmp	.-26     	; 0x157e <main+0x240>
/home/adam/bsides-leeds-2026-badge/firmware/firmware.ino:1280
    case 5:
      if ((state & B00000111) != 0) { return 0; };
    1598:	80 91 d0 3e 	lds	r24, 0x3ED0	; 0x803ed0 <state>
    159c:	87 70       	andi	r24, 0x07	; 7
    159e:	11 f1       	breq	.+68     	; 0x15e4 <main+0x2a6>
loop():
/home/adam/bsides-leeds-2026-badge/firmware/firmware.ino:1383

  while (true) {
    int intervalMs = runAnimationMode(animationMode, animationStep);

    if (intervalMs == 0) {
      animationMode++;
    15a0:	23 94       	inc	r2
    15a2:	10 e0       	ldi	r17, 0x00	; 0
    15a4:	00 e0       	ldi	r16, 0x00	; 0
/home/adam/bsides-leeds-2026-badge/firmware/firmware.ino:1391
    if (intervalMs < 0) {
      animationMode = 0;
      continue;
    }

    ++animationStep;
    15a6:	8f ef       	ldi	r24, 0xFF	; 255
    15a8:	e8 1a       	sub	r14, r24
    15aa:	f8 0a       	sbc	r15, r24
/home/adam/bsides-leeds-2026-badge/firmware/firmware.ino:1392
    totalIntervalMs += intervalMs;
    15ac:	c8 01       	movw	r24, r16
    15ae:	01 2e       	mov	r0, r17
    15b0:	00 0c       	add	r0, r0
    15b2:	aa 0b       	sbc	r26, r26
    15b4:	bb 0b       	sbc	r27, r27
    15b6:	48 0e       	add	r4, r24
    15b8:	59 1e       	adc	r5, r25
    15ba:	6a 1e       	adc	r6, r26
    15bc:	7b 1e       	adc	r7, r27
playFollowTheSequenceTwoPlayer():
/home/adam/bsides-leeds-2026-badge/firmware/firmware.ino:865
    }

    if (rightActive) {
      if (playFollowTheSequenceLevelForPlayer(PLAYER_RIGHT, rightSequence, level)) {
        rightScore = level;
        flashPlayerEye(PLAYER_RIGHT, COLOR_GREEN, 1);
    15be:	80 91 b4 9f 	lds	r24, 0x9FB4	; 0x809fb4 <__bss_end+0x60c4>
    15c2:	90 91 b5 9f 	lds	r25, 0x9FB5	; 0x809fb5 <__bss_end+0x60c5>
    15c6:	a0 91 b6 9f 	lds	r26, 0x9FB6	; 0x809fb6 <__bss_end+0x60c6>
    15ca:	89 a3       	std	Y+33, r24	; 0x21
    15cc:	9a a3       	std	Y+34, r25	; 0x22
    15ce:	ab a3       	std	Y+35, r26	; 0x23
/home/adam/bsides-leeds-2026-badge/firmware/firmware.ino:858
      if (playFollowTheSequenceLevelForPlayer(PLAYER_LEFT, leftSequence, level)) {
        leftScore = level;
        flashPlayerEye(PLAYER_LEFT, COLOR_GREEN, 1);
      } else {
        leftActive = false;
        flashPlayerEye(PLAYER_LEFT, COLOR_RED);
    15d0:	80 91 b7 9f 	lds	r24, 0x9FB7	; 0x809fb7 <__bss_end+0x60c7>
    15d4:	90 91 b8 9f 	lds	r25, 0x9FB8	; 0x809fb8 <__bss_end+0x60c8>
    15d8:	a0 91 b9 9f 	lds	r26, 0x9FB9	; 0x809fb9 <__bss_end+0x60c9>
    15dc:	8c a3       	std	Y+36, r24	; 0x24
    15de:	9d a3       	std	Y+37, r25	; 0x25
    15e0:	ae a3       	std	Y+38, r26	; 0x26
    15e2:	39 c1       	rjmp	.+626    	; 0x1856 <main+0x518>
devsecopsMode():
/home/adam/bsides-leeds-2026-badge/firmware/firmware.ino:1121
{
  uint8_t r = 0;
  uint8_t g = 0;
  uint8_t b = 0;

 step = step % 90;
    15e4:	c7 01       	movw	r24, r14
    15e6:	6a e5       	ldi	r22, 0x5A	; 90
    15e8:	70 e0       	ldi	r23, 0x00	; 0
    15ea:	93 d4       	rcall	.+2342   	; 0x1f12 <__udivmodhi4>
main():
/home/adam/bsides-leeds-2026-badge/firmware/firmware.ino:1119

uint8_t devsecopsMode(uint16_t step)
{
  uint8_t r = 0;
  uint8_t g = 0;
  uint8_t b = 0;
    15ec:	20 e0       	ldi	r18, 0x00	; 0
/home/adam/bsides-leeds-2026-badge/firmware/firmware.ino:1118
};

uint8_t devsecopsMode(uint16_t step)
{
  uint8_t r = 0;
  uint8_t g = 0;
    15ee:	40 e0       	ldi	r20, 0x00	; 0
/home/adam/bsides-leeds-2026-badge/firmware/firmware.ino:1125

 step = step % 90;
  
  if (step < 18)
  {
    r = 30; 
    15f0:	3e e1       	ldi	r19, 0x1E	; 30
devsecopsMode():
/home/adam/bsides-leeds-2026-badge/firmware/firmware.ino:1123
  uint8_t g = 0;
  uint8_t b = 0;

 step = step % 90;
  
  if (step < 18)
    15f2:	82 31       	cpi	r24, 0x12	; 18
    15f4:	91 05       	cpc	r25, r1
    15f6:	a8 f0       	brcs	.+42     	; 0x1622 <main+0x2e4>
/home/adam/bsides-leeds-2026-badge/firmware/firmware.ino:1127
  {
    r = 30; 
  }
  else if (step < 36)
    15f8:	84 32       	cpi	r24, 0x24	; 36
    15fa:	91 05       	cpc	r25, r1
    15fc:	78 f0       	brcs	.+30     	; 0x161c <main+0x2de>
main():
/home/adam/bsides-leeds-2026-badge/firmware/firmware.ino:1119

uint8_t devsecopsMode(uint16_t step)
{
  uint8_t r = 0;
  uint8_t g = 0;
  uint8_t b = 0;
    15fe:	20 e0       	ldi	r18, 0x00	; 0
/home/adam/bsides-leeds-2026-badge/firmware/firmware.ino:1134
    g = 8;
  }
  else if (step < 54)
  {
    r = 20;
  g = 8;
    1600:	48 e0       	ldi	r20, 0x08	; 8
/home/adam/bsides-leeds-2026-badge/firmware/firmware.ino:1133
  {
    g = 8;
  }
  else if (step < 54)
  {
    r = 20;
    1602:	34 e1       	ldi	r19, 0x14	; 20
devsecopsMode():
/home/adam/bsides-leeds-2026-badge/firmware/firmware.ino:1131
  }
  else if (step < 36)
  {
    g = 8;
  }
  else if (step < 54)
    1604:	86 33       	cpi	r24, 0x36	; 54
    1606:	91 05       	cpc	r25, r1
    1608:	60 f0       	brcs	.+24     	; 0x1622 <main+0x2e4>
main():
/home/adam/bsides-leeds-2026-badge/firmware/firmware.ino:1139
  g = 8;
  }
  else if (step < 72)
  {
    r = 6;
    b = 30;
    160a:	2e e1       	ldi	r18, 0x1E	; 30
/home/adam/bsides-leeds-2026-badge/firmware/firmware.ino:1118
};

uint8_t devsecopsMode(uint16_t step)
{
  uint8_t r = 0;
  uint8_t g = 0;
    160c:	40 e0       	ldi	r20, 0x00	; 0
/home/adam/bsides-leeds-2026-badge/firmware/firmware.ino:1138
    r = 20;
  g = 8;
  }
  else if (step < 72)
  {
    r = 6;
    160e:	36 e0       	ldi	r19, 0x06	; 6
devsecopsMode():
/home/adam/bsides-leeds-2026-badge/firmware/firmware.ino:1136
  else if (step < 54)
  {
    r = 20;
  g = 8;
  }
  else if (step < 72)
    1610:	88 34       	cpi	r24, 0x48	; 72
    1612:	91 05       	cpc	r25, r1
    1614:	30 f0       	brcs	.+12     	; 0x1622 <main+0x2e4>
main():
/home/adam/bsides-leeds-2026-badge/firmware/firmware.ino:1143
    r = 6;
    b = 30;
  }
    else if (step < 90)
  {
    g = 5;
    1616:	42 2d       	mov	r20, r2
/home/adam/bsides-leeds-2026-badge/firmware/firmware.ino:1144
    b = 30;
    1618:	2e e1       	ldi	r18, 0x1E	; 30
    161a:	02 c0       	rjmp	.+4      	; 0x1620 <main+0x2e2>
/home/adam/bsides-leeds-2026-badge/firmware/firmware.ino:1119

uint8_t devsecopsMode(uint16_t step)
{
  uint8_t r = 0;
  uint8_t g = 0;
  uint8_t b = 0;
    161c:	20 e0       	ldi	r18, 0x00	; 0
/home/adam/bsides-leeds-2026-badge/firmware/firmware.ino:1129
  {
    r = 30; 
  }
  else if (step < 36)
  {
    g = 8;
    161e:	48 e0       	ldi	r20, 0x08	; 8
/home/adam/bsides-leeds-2026-badge/firmware/firmware.ino:1117
   7, 8, 0, 1, 2, 3, 4, 5, 6, 10, 9, 17, 16, 15, 14, 13, 12, 11,
};

uint8_t devsecopsMode(uint16_t step)
{
  uint8_t r = 0;
    1620:	30 e0       	ldi	r19, 0x00	; 0
devsecopsMode():
/home/adam/bsides-leeds-2026-badge/firmware/firmware.ino:1146
    else if (step < 90)
  {
    g = 5;
    b = 30;
  }
  uint8_t pos = step % 18;
    1622:	62 e1       	ldi	r22, 0x12	; 18
    1624:	70 e0       	ldi	r23, 0x00	; 0
    1626:	75 d4       	rcall	.+2282   	; 0x1f12 <__udivmodhi4>
/home/adam/bsides-leeds-2026-badge/firmware/firmware.ino:1147
  ledStrip.setPixelColor(pgm_read_byte(&INFINITI_LEDS[pos]), r,g,b);
    1628:	8c 5c       	subi	r24, 0xCC	; 204
    162a:	9f 4f       	sbci	r25, 0xFF	; 255
    162c:	fc 01       	movw	r30, r24
    162e:	84 91       	lpm	r24, Z
    1630:	63 2f       	mov	r22, r19
    1632:	90 e0       	ldi	r25, 0x00	; 0
    1634:	4f d5       	rcall	.+2718   	; 0x20d4 <__TEXT_REGION_LENGTH__+0xd4>
/home/adam/bsides-leeds-2026-badge/firmware/firmware.ino:1148
  ledStrip.show();
    1636:	0a d6       	rcall	.+3092   	; 0x224c <__TEXT_REGION_LENGTH__+0x24c>
main():
/home/adam/bsides-leeds-2026-badge/firmware/firmware.ino:1281
      return knightRider(step, 10, 0, 0);
    case 4:
      return loopingEyes(step, 10, 0, 0);
    case 5:
      if ((state & B00000111) != 0) { return 0; };
      return devsecopsMode(step);
    1638:	02 e3       	ldi	r16, 0x32	; 50
    163a:	10 e0       	ldi	r17, 0x00	; 0
    163c:	b4 cf       	rjmp	.-152    	; 0x15a6 <main+0x268>
runAnimationMode():
/home/adam/bsides-leeds-2026-badge/firmware/firmware.ino:1283
    case 6:
      if ((state & B00000010) != 0) { return 0; };
    163e:	80 91 d0 3e 	lds	r24, 0x3ED0	; 0x803ed0 <state>
    1642:	81 fd       	sbrc	r24, 1
    1644:	ad cf       	rjmp	.-166    	; 0x15a0 <main+0x262>
nuclearMode():
/home/adam/bsides-leeds-2026-badge/firmware/firmware.ino:1154
  return 50;
}

uint8_t nuclearMode(uint16_t step, uint8_t spacing, uint8_t r, uint8_t g, uint8_t b, uint8_t r2, uint8_t g2, uint8_t b2, uint8_t ret )
{
  uint8_t initial = step % 3;
    1646:	c7 01       	movw	r24, r14
    1648:	63 e0       	ldi	r22, 0x03	; 3
    164a:	70 e0       	ldi	r23, 0x00	; 0
    164c:	62 d4       	rcall	.+2244   	; 0x1f12 <__udivmodhi4>
    164e:	18 2f       	mov	r17, r24
/home/adam/bsides-leeds-2026-badge/firmware/firmware.ino:1155
  setAllLeds(r,g,b);
    1650:	20 e0       	ldi	r18, 0x00	; 0
    1652:	40 e0       	ldi	r20, 0x00	; 0
    1654:	60 e0       	ldi	r22, 0x00	; 0
    1656:	80 e0       	ldi	r24, 0x00	; 0
    1658:	cf d8       	rcall	.-3682   	; 0x7f8 <setAllLeds(unsigned char, unsigned char, unsigned char, bool)>
/home/adam/bsides-leeds-2026-badge/firmware/firmware.ino:1158
  for (uint8_t i = 0 + initial; i < 18; i = i + spacing)
  {
    ledStrip.setPixelColor(i, r2, g2, b2);
    165a:	20 e0       	ldi	r18, 0x00	; 0
    165c:	44 e1       	ldi	r20, 0x14	; 20
    165e:	6a e0       	ldi	r22, 0x0A	; 10
    1660:	81 2f       	mov	r24, r17
    1662:	90 e0       	ldi	r25, 0x00	; 0
    1664:	37 d5       	rcall	.+2670   	; 0x20d4 <__TEXT_REGION_LENGTH__+0xd4>
/home/adam/bsides-leeds-2026-badge/firmware/firmware.ino:1156

uint8_t nuclearMode(uint16_t step, uint8_t spacing, uint8_t r, uint8_t g, uint8_t b, uint8_t r2, uint8_t g2, uint8_t b2, uint8_t ret )
{
  uint8_t initial = step % 3;
  setAllLeds(r,g,b);
  for (uint8_t i = 0 + initial; i < 18; i = i + spacing)
    1666:	1d 5f       	subi	r17, 0xFD	; 253
    1668:	12 31       	cpi	r17, 0x12	; 18
    166a:	b8 f3       	brcs	.-18     	; 0x165a <main+0x31c>
/home/adam/bsides-leeds-2026-badge/firmware/firmware.ino:1160
  {
    ledStrip.setPixelColor(i, r2, g2, b2);
  }
  ledStrip.show();
    166c:	ef d5       	rcall	.+3038   	; 0x224c <__TEXT_REGION_LENGTH__+0x24c>
main():
/home/adam/bsides-leeds-2026-badge/firmware/firmware.ino:1284
    case 5:
      if ((state & B00000111) != 0) { return 0; };
      return devsecopsMode(step);
    case 6:
      if ((state & B00000010) != 0) { return 0; };
      return nuclearMode(step, 3, 0, 0, 0, 10, 20, 0, 150 );
    166e:	06 e9       	ldi	r16, 0x96	; 150
    1670:	10 e0       	ldi	r17, 0x00	; 0
    1672:	99 cf       	rjmp	.-206    	; 0x15a6 <main+0x268>
runAnimationMode():
/home/adam/bsides-leeds-2026-badge/firmware/firmware.ino:1286
    case 7:
      if ((state & B00000100) != 0) { return 0; };
    1674:	80 91 d0 3e 	lds	r24, 0x3ED0	; 0x803ed0 <state>
    1678:	82 fd       	sbrc	r24, 2
    167a:	92 cf       	rjmp	.-220    	; 0x15a0 <main+0x262>
breath():
/home/adam/bsides-leeds-2026-badge/firmware/firmware.ino:1187
  return ret;
}

uint8_t breath(uint16_t step, uint8_t r, uint8_t g, uint8_t b )
{
  step = step % 60;
    167c:	2c e3       	ldi	r18, 0x3C	; 60
    167e:	30 e0       	ldi	r19, 0x00	; 0
    1680:	c7 01       	movw	r24, r14
    1682:	b9 01       	movw	r22, r18
    1684:	46 d4       	rcall	.+2188   	; 0x1f12 <__udivmodhi4>
    1686:	8c 01       	movw	r16, r24
/home/adam/bsides-leeds-2026-badge/firmware/firmware.ino:1188
  if (step > 30)
    1688:	4f 97       	sbiw	r24, 0x1f	; 31
    168a:	20 f0       	brcs	.+8      	; 0x1694 <main+0x356>
/home/adam/bsides-leeds-2026-badge/firmware/firmware.ino:1190
  {
    step = 60 - step;
    168c:	c9 01       	movw	r24, r18
    168e:	80 1b       	sub	r24, r16
    1690:	91 0b       	sbc	r25, r17
    1692:	8c 01       	movw	r16, r24
/home/adam/bsides-leeds-2026-badge/firmware/firmware.ino:1192
  }
  setAllLeds(r * step, g * step, b * step, true);
    1694:	48 e2       	ldi	r20, 0x28	; 40
    1696:	40 9f       	mul	r20, r16
    1698:	40 2d       	mov	r20, r0
    169a:	11 24       	eor	r1, r1
    169c:	21 e0       	ldi	r18, 0x01	; 1
    169e:	60 2f       	mov	r22, r16
    16a0:	82 e3       	ldi	r24, 0x32	; 50
    16a2:	80 9f       	mul	r24, r16
    16a4:	80 2d       	mov	r24, r0
    16a6:	11 24       	eor	r1, r1
    16a8:	61 cf       	rjmp	.-318    	; 0x156c <main+0x22e>
main():
/home/adam/bsides-leeds-2026-badge/firmware/firmware.ino:1197
  if (step == 0 )
  {
    return 200;
  }
  return 30;
    16aa:	0e e1       	ldi	r16, 0x1E	; 30
    16ac:	64 cf       	rjmp	.-312    	; 0x1576 <main+0x238>
runAnimationMode():
/home/adam/bsides-leeds-2026-badge/firmware/firmware.ino:1289
      return nuclearMode(step, 3, 0, 0, 0, 10, 20, 0, 150 );
    case 7:
      if ((state & B00000100) != 0) { return 0; };
      return breath(step, 50, 1, 40); // patched out york rose
    case 8:
      if ((state & B00000001) != 0) { return 0; };
    16ae:	80 91 d0 3e 	lds	r24, 0x3ED0	; 0x803ed0 <state>
    16b2:	80 fd       	sbrc	r24, 0
    16b4:	75 cf       	rjmp	.-278    	; 0x15a0 <main+0x262>
policeMode():
/home/adam/bsides-leeds-2026-badge/firmware/firmware.ino:1101
  return 100;
}

uint8_t policeMode(uint16_t step)
{
  uint8_t initial = step % 2;
    16b6:	1e 2d       	mov	r17, r14
    16b8:	11 70       	andi	r17, 0x01	; 1
/home/adam/bsides-leeds-2026-badge/firmware/firmware.ino:1102
  setAllLeds(10,0,0);
    16ba:	20 e0       	ldi	r18, 0x00	; 0
    16bc:	40 e0       	ldi	r20, 0x00	; 0
    16be:	60 e0       	ldi	r22, 0x00	; 0
    16c0:	8a e0       	ldi	r24, 0x0A	; 10
    16c2:	9a d8       	rcall	.-3788   	; 0x7f8 <setAllLeds(unsigned char, unsigned char, unsigned char, bool)>
/home/adam/bsides-leeds-2026-badge/firmware/firmware.ino:1105
  for (uint8_t i = 0 + initial; i < 18; i = i + 2)
  {
    ledStrip.setPixelColor(i, 0,0,255);
    16c4:	2f ef       	ldi	r18, 0xFF	; 255
    16c6:	40 e0       	ldi	r20, 0x00	; 0
    16c8:	60 e0       	ldi	r22, 0x00	; 0
    16ca:	81 2f       	mov	r24, r17
    16cc:	90 e0       	ldi	r25, 0x00	; 0
    16ce:	02 d5       	rcall	.+2564   	; 0x20d4 <__TEXT_REGION_LENGTH__+0xd4>
/home/adam/bsides-leeds-2026-badge/firmware/firmware.ino:1103

uint8_t policeMode(uint16_t step)
{
  uint8_t initial = step % 2;
  setAllLeds(10,0,0);
  for (uint8_t i = 0 + initial; i < 18; i = i + 2)
    16d0:	1e 5f       	subi	r17, 0xFE	; 254
    16d2:	12 31       	cpi	r17, 0x12	; 18
    16d4:	b8 f3       	brcs	.-18     	; 0x16c4 <main+0x386>
timer():
/home/adam/bsides-leeds-2026-badge/firmware/firmware.ino:1229

    if (flashOn) {
      setAllLeds(10, 0, 0);
    }

    ledStrip.show();
    16d6:	ba d5       	rcall	.+2932   	; 0x224c <__TEXT_REGION_LENGTH__+0x24c>
main():
/home/adam/bsides-leeds-2026-badge/firmware/firmware.ino:1294
      if ((state & B00000001) != 0) { return 0; };
      return policeMode(step);
    case 9:
      return spinMode(step, 1, 0, 3, 0,0,3,75);
    case 10:
      return timer(step);
    16d8:	04 e6       	ldi	r16, 0x64	; 100
    16da:	10 e0       	ldi	r17, 0x00	; 0
    16dc:	64 cf       	rjmp	.-312    	; 0x15a6 <main+0x268>
spinMode():
/home/adam/bsides-leeds-2026-badge/firmware/firmware.ino:1174
  10, 9, 17, 16, 15, 14, 13, 12, 11,
};

uint8_t spinMode(uint16_t step, uint8_t r, uint8_t g, uint8_t b, uint8_t r2, uint8_t g2, uint8_t b2, uint8_t ret, uint8_t offset = 0 )
{
  step = step % 9;
    16de:	c7 01       	movw	r24, r14
    16e0:	69 e0       	ldi	r22, 0x09	; 9
    16e2:	70 e0       	ldi	r23, 0x00	; 0
    16e4:	16 d4       	rcall	.+2092   	; 0x1f12 <__udivmodhi4>
    16e6:	6c 01       	movw	r12, r24
/home/adam/bsides-leeds-2026-badge/firmware/firmware.ino:1175
  setAllLeds(0,0,0);
    16e8:	20 e0       	ldi	r18, 0x00	; 0
    16ea:	40 e0       	ldi	r20, 0x00	; 0
    16ec:	60 e0       	ldi	r22, 0x00	; 0
    16ee:	80 e0       	ldi	r24, 0x00	; 0
    16f0:	83 d8       	rcall	.-3834   	; 0x7f8 <setAllLeds(unsigned char, unsigned char, unsigned char, bool)>
main():
/home/adam/bsides-leeds-2026-badge/firmware/firmware.ino:1176
  for (uint8_t i = 0; i < 7; i++ )
    16f2:	91 2c       	mov	r9, r1
spinMode():
/home/adam/bsides-leeds-2026-badge/firmware/firmware.ino:1178
  {
    ledStrip.setPixelColor(pgm_read_byte(&SPIN_LEDS_LEFT[(step + i) % 9]), r * i,g * i,b * i);
    16f4:	79 e0       	ldi	r23, 0x09	; 9
    16f6:	a7 2e       	mov	r10, r23
    16f8:	b1 2c       	mov	r11, r1
    16fa:	89 2c       	mov	r8, r9
    16fc:	88 0c       	add	r8, r8
    16fe:	89 0c       	add	r8, r9
    1700:	c6 01       	movw	r24, r12
    1702:	b5 01       	movw	r22, r10
    1704:	06 d4       	rcall	.+2060   	; 0x1f12 <__udivmodhi4>
    1706:	8c 01       	movw	r16, r24
    1708:	fc 01       	movw	r30, r24
    170a:	e1 5b       	subi	r30, 0xB1	; 177
    170c:	ff 4f       	sbci	r31, 0xFF	; 255
    170e:	84 91       	lpm	r24, Z
    1710:	28 2d       	mov	r18, r8
    1712:	40 e0       	ldi	r20, 0x00	; 0
    1714:	69 2d       	mov	r22, r9
    1716:	90 e0       	ldi	r25, 0x00	; 0
    1718:	dd d4       	rcall	.+2490   	; 0x20d4 <__TEXT_REGION_LENGTH__+0xd4>
/home/adam/bsides-leeds-2026-badge/firmware/firmware.ino:1179
    ledStrip.setPixelColor(pgm_read_byte(&SPIN_LEDS_RIGHT[(step + i + offset) % 9]), r2 * i,g2 * i,b2 * i);
    171a:	f8 01       	movw	r30, r16
    171c:	ea 5b       	subi	r30, 0xBA	; 186
    171e:	ff 4f       	sbci	r31, 0xFF	; 255
    1720:	e4 91       	lpm	r30, Z
    1722:	28 2d       	mov	r18, r8
    1724:	40 e0       	ldi	r20, 0x00	; 0
    1726:	60 e0       	ldi	r22, 0x00	; 0
    1728:	8e 2f       	mov	r24, r30
    172a:	90 e0       	ldi	r25, 0x00	; 0
    172c:	d3 d4       	rcall	.+2470   	; 0x20d4 <__TEXT_REGION_LENGTH__+0xd4>
/home/adam/bsides-leeds-2026-badge/firmware/firmware.ino:1176

uint8_t spinMode(uint16_t step, uint8_t r, uint8_t g, uint8_t b, uint8_t r2, uint8_t g2, uint8_t b2, uint8_t ret, uint8_t offset = 0 )
{
  step = step % 9;
  setAllLeds(0,0,0);
  for (uint8_t i = 0; i < 7; i++ )
    172e:	93 94       	inc	r9
    1730:	9f ef       	ldi	r25, 0xFF	; 255
    1732:	c9 1a       	sub	r12, r25
    1734:	d9 0a       	sbc	r13, r25
    1736:	a7 e0       	ldi	r26, 0x07	; 7
    1738:	9a 12       	cpse	r9, r26
    173a:	df cf       	rjmp	.-66     	; 0x16fa <main+0x3bc>
/home/adam/bsides-leeds-2026-badge/firmware/firmware.ino:1181
  {
    ledStrip.setPixelColor(pgm_read_byte(&SPIN_LEDS_LEFT[(step + i) % 9]), r * i,g * i,b * i);
    ledStrip.setPixelColor(pgm_read_byte(&SPIN_LEDS_RIGHT[(step + i + offset) % 9]), r2 * i,g2 * i,b2 * i);
  }
  ledStrip.show();
    173c:	87 d5       	rcall	.+2830   	; 0x224c <__TEXT_REGION_LENGTH__+0x24c>
main():
/home/adam/bsides-leeds-2026-badge/firmware/firmware.ino:1292
      return breath(step, 50, 1, 40); // patched out york rose
    case 8:
      if ((state & B00000001) != 0) { return 0; };
      return policeMode(step);
    case 9:
      return spinMode(step, 1, 0, 3, 0,0,3,75);
    173e:	0b e4       	ldi	r16, 0x4B	; 75
    1740:	10 e0       	ldi	r17, 0x00	; 0
    1742:	31 cf       	rjmp	.-414    	; 0x15a6 <main+0x268>
timer():
/home/adam/bsides-leeds-2026-badge/firmware/firmware.ino:1216
  const uint16_t minuteSteps = multiplier * eyeLedCount;
  const uint16_t timerSteps = minuteSteps * totalMinutes;
  const uint16_t finishedSteps = 5000 / frameMs;      // 5 seconds

  const uint16_t totalSteps = preFlashSteps + timerSteps + finishedSteps;
  step = step % totalSteps;
    1744:	c7 01       	movw	r24, r14
    1746:	6f e3       	ldi	r22, 0x3F	; 63
    1748:	74 e1       	ldi	r23, 0x14	; 20
    174a:	e3 d3       	rcall	.+1990   	; 0x1f12 <__udivmodhi4>
    174c:	8c 01       	movw	r16, r24
/home/adam/bsides-leeds-2026-badge/firmware/firmware.ino:1219

  // Clear both eyes.
  setAllLeds(0, 0, 0);
    174e:	20 e0       	ldi	r18, 0x00	; 0
    1750:	40 e0       	ldi	r20, 0x00	; 0
    1752:	60 e0       	ldi	r22, 0x00	; 0
    1754:	80 e0       	ldi	r24, 0x00	; 0
    1756:	50 d8       	rcall	.-3936   	; 0x7f8 <setAllLeds(unsigned char, unsigned char, unsigned char, bool)>
/home/adam/bsides-leeds-2026-badge/firmware/firmware.ino:1223

  // First 3 seconds: flash on/off every half second.
  if (step < preFlashSteps) {
    const bool flashOn = ((step / halfSecondSteps) % 2) == 0;
    1758:	c8 01       	movw	r24, r16
/home/adam/bsides-leeds-2026-badge/firmware/firmware.ino:1222

  // Clear both eyes.
  setAllLeds(0, 0, 0);

  // First 3 seconds: flash on/off every half second.
  if (step < preFlashSteps) {
    175a:	0e 31       	cpi	r16, 0x1E	; 30
    175c:	11 05       	cpc	r17, r1
    175e:	58 f4       	brcc	.+22     	; 0x1776 <main+0x438>
/home/adam/bsides-leeds-2026-badge/firmware/firmware.ino:1223
    const bool flashOn = ((step / halfSecondSteps) % 2) == 0;
    1760:	65 e0       	ldi	r22, 0x05	; 5
    1762:	70 e0       	ldi	r23, 0x00	; 0
    1764:	d6 d3       	rcall	.+1964   	; 0x1f12 <__udivmodhi4>
/home/adam/bsides-leeds-2026-badge/firmware/firmware.ino:1225

    if (flashOn) {
    1766:	60 fd       	sbrc	r22, 0
    1768:	b6 cf       	rjmp	.-148    	; 0x16d6 <main+0x398>
/home/adam/bsides-leeds-2026-badge/firmware/firmware.ino:1226
      setAllLeds(10, 0, 0);
    176a:	20 e0       	ldi	r18, 0x00	; 0
    176c:	40 e0       	ldi	r20, 0x00	; 0
    176e:	60 e0       	ldi	r22, 0x00	; 0
    1770:	8a e0       	ldi	r24, 0x0A	; 10
    1772:	42 d8       	rcall	.-3964   	; 0x7f8 <setAllLeds(unsigned char, unsigned char, unsigned char, bool)>
    1774:	b0 cf       	rjmp	.-160    	; 0x16d6 <main+0x398>
/home/adam/bsides-leeds-2026-badge/firmware/firmware.ino:1233

    ledStrip.show();
    return frameMs;
  }

  step -= preFlashSteps;
    1776:	4e 97       	sbiw	r24, 0x1e	; 30
/home/adam/bsides-leeds-2026-badge/firmware/firmware.ino:1236

  // Timer phase.
  if (step < timerSteps) {
    1778:	8f 3e       	cpi	r24, 0xEF	; 239
    177a:	b3 e1       	ldi	r27, 0x13	; 19
    177c:	9b 07       	cpc	r25, r27
    177e:	00 f5       	brcc	.+64     	; 0x17c0 <main+0x482>
/home/adam/bsides-leeds-2026-badge/firmware/firmware.ino:1237
    const uint8_t completedMinutes = step / minuteSteps;
    1780:	67 e3       	ldi	r22, 0x37	; 55
    1782:	72 e0       	ldi	r23, 0x02	; 2
    1784:	c6 d3       	rcall	.+1932   	; 0x1f12 <__udivmodhi4>
    1786:	c6 2e       	mov	r12, r22
/home/adam/bsides-leeds-2026-badge/firmware/firmware.ino:1240
    const uint16_t currentMinuteStep = step % minuteSteps;

    uint8_t rightEyeLedsLit = (currentMinuteStep / multiplier) + 1;
    1788:	6f e3       	ldi	r22, 0x3F	; 63
    178a:	70 e0       	ldi	r23, 0x00	; 0
    178c:	c2 d3       	rcall	.+1924   	; 0x1f12 <__udivmodhi4>
    178e:	dd 24       	eor	r13, r13
    1790:	d3 94       	inc	r13
    1792:	d6 0e       	add	r13, r22
    1794:	10 e0       	ldi	r17, 0x00	; 0
    1796:	00 e0       	ldi	r16, 0x00	; 0
/home/adam/bsides-leeds-2026-badge/firmware/firmware.ino:1247
    if (rightEyeLedsLit > eyeLedCount) {
      rightEyeLedsLit = eyeLedCount;
    }

    // Left eye: one light per completed minute.
    for (uint8_t ledIndex = 0; ledIndex < completedMinutes; ++ledIndex) {
    1798:	0c 15       	cp	r16, r12
    179a:	40 f4       	brcc	.+16     	; 0x17ac <main+0x46e>
/home/adam/bsides-leeds-2026-badge/firmware/firmware.ino:1248
      ledStrip.setPixelColor(ledIndex, 10, 0, 0);
    179c:	20 e0       	ldi	r18, 0x00	; 0
    179e:	40 e0       	ldi	r20, 0x00	; 0
    17a0:	6a e0       	ldi	r22, 0x0A	; 10
    17a2:	c8 01       	movw	r24, r16
    17a4:	97 d4       	rcall	.+2350   	; 0x20d4 <__TEXT_REGION_LENGTH__+0xd4>
    17a6:	0f 5f       	subi	r16, 0xFF	; 255
    17a8:	1f 4f       	sbci	r17, 0xFF	; 255
    17aa:	f6 cf       	rjmp	.-20     	; 0x1798 <main+0x45a>
main():
/home/adam/bsides-leeds-2026-badge/firmware/firmware.ino:1252
    }

    // Right eye: progress through the current minute.
    for (uint8_t ledIndex = 0; ledIndex < rightEyeLedsLit; ++ledIndex) {
    17ac:	10 e0       	ldi	r17, 0x00	; 0
timer():
/home/adam/bsides-leeds-2026-badge/firmware/firmware.ino:1253
      setRightEyeLed(ledIndex, 10, 0, 0);
    17ae:	20 e0       	ldi	r18, 0x00	; 0
    17b0:	40 e0       	ldi	r20, 0x00	; 0
    17b2:	6a e0       	ldi	r22, 0x0A	; 10
    17b4:	81 2f       	mov	r24, r17
    17b6:	9a d7       	rcall	.+3892   	; 0x26ec <__TEXT_REGION_LENGTH__+0x6ec>
/home/adam/bsides-leeds-2026-badge/firmware/firmware.ino:1252
    for (uint8_t ledIndex = 0; ledIndex < completedMinutes; ++ledIndex) {
      ledStrip.setPixelColor(ledIndex, 10, 0, 0);
    }

    // Right eye: progress through the current minute.
    for (uint8_t ledIndex = 0; ledIndex < rightEyeLedsLit; ++ledIndex) {
    17b8:	1f 5f       	subi	r17, 0xFF	; 255
    17ba:	1d 15       	cp	r17, r13
    17bc:	c0 f3       	brcs	.-16     	; 0x17ae <main+0x470>
    17be:	8b cf       	rjmp	.-234    	; 0x16d6 <main+0x398>
/home/adam/bsides-leeds-2026-badge/firmware/firmware.ino:1261
    ledStrip.show();
    return frameMs;
  }

  // Finished phase: both eyes green for 5 seconds.
  setAllLeds(0, 30, 0, true);
    17c0:	21 e0       	ldi	r18, 0x01	; 1
    17c2:	40 e0       	ldi	r20, 0x00	; 0
    17c4:	6e e1       	ldi	r22, 0x1E	; 30
    17c6:	80 e0       	ldi	r24, 0x00	; 0
    17c8:	17 d8       	rcall	.-4050   	; 0x7f8 <setAllLeds(unsigned char, unsigned char, unsigned char, bool)>
    17ca:	86 cf       	rjmp	.-244    	; 0x16d8 <main+0x39a>
loop():
/home/adam/bsides-leeds-2026-badge/firmware/firmware.ino:1400
      showTouchedPads();
      delay(TOUCH_POLL_MS);
      intervalMs -= TOUCH_POLL_MS;

      const uint16_t buttonLowTime = measureWakeButtonLowTime(MAX_BUTTON_HOLD_MS);
      if (buttonLowTime > SHORT_PRESS_THRESHOLD_MS) {
    17cc:	b9 ec       	ldi	r27, 0xC9	; 201
    17ce:	eb 16       	cp	r14, r27
    17d0:	f1 04       	cpc	r15, r1
    17d2:	e8 f1       	brcs	.+122    	; 0x184e <main+0x510>
handleWakeButtonPress():
/home/adam/bsides-leeds-2026-badge/firmware/firmware.ino:1307
  uint8_t &animationMode,
  uint16_t &animationStep,
  uint32_t &totalIntervalMs
)
{
  if (heldMs > LONG_PRESS_THRESHOLD_MS) {
    17d4:	e1 eb       	ldi	r30, 0xB1	; 177
    17d6:	ee 16       	cp	r14, r30
    17d8:	e4 e0       	ldi	r30, 0x04	; 4
    17da:	fe 06       	cpc	r15, r30
    17dc:	08 f0       	brcs	.+2      	; 0x17e0 <main+0x4a2>
    17de:	62 c0       	rjmp	.+196    	; 0x18a4 <main+0x566>
/home/adam/bsides-leeds-2026-badge/firmware/firmware.ino:1317
      miniSleep();
    }

    enterSleep();
  } else {
    const uint8_t pressedMask = getPressedTouchMask();
    17e0:	b4 d8       	rcall	.-3736   	; 0x94a <getPressedTouchMask()>
    17e2:	f8 2e       	mov	r15, r24
/home/adam/bsides-leeds-2026-badge/firmware/firmware.ino:1318
    waitForAllTouchPadsReleased();
    17e4:	04 dc       	rcall	.-2040   	; 0xfee <waitForAllTouchPadsReleased()>
/home/adam/bsides-leeds-2026-badge/firmware/firmware.ino:1320

    if (pressedMask != 0) {
    17e6:	ff 20       	and	r15, r15
    17e8:	09 f4       	brne	.+2      	; 0x17ec <main+0x4ae>
    17ea:	b3 c0       	rjmp	.+358    	; 0x1952 <main+0x614>
millis():
/home/adam/.arduino15/packages/megaTinyCore/hardware/megaavr/2.6.11/cores/megatinycore/wiring.c:167
  unsigned long millis() {
    // return timer_overflow_count; // for debugging timekeeping issues where these variables are out of scope from the sketch
    unsigned long m;
    // disable interrupts while we read timer_millis or we might get an
    // inconsistent value (e.g. in the middle of a write to timer_millis)
    uint8_t oldSREG = SREG;
    17ec:	8f b7       	in	r24, 0x3f	; 63
/home/adam/.arduino15/packages/megaTinyCore/hardware/megaavr/2.6.11/cores/megatinycore/wiring.c:168
    cli();
    17ee:	f8 94       	cli
/home/adam/.arduino15/packages/megaTinyCore/hardware/megaavr/2.6.11/cores/megatinycore/wiring.c:182
        if (!(rtccount & 0x8000)) m += 64000;
      }
      SREG = oldSREG;
      m += rtccount - (rtccount >> 5) + (rtccount >> 7);
    #else
      m = timingStruct.timer_millis;
    17f0:	40 91 d5 3e 	lds	r20, 0x3ED5	; 0x803ed5 <timingStruct+0x4>
    17f4:	50 91 d6 3e 	lds	r21, 0x3ED6	; 0x803ed6 <timingStruct+0x5>
    17f8:	60 91 d7 3e 	lds	r22, 0x3ED7	; 0x803ed7 <timingStruct+0x6>
    17fc:	70 91 d8 3e 	lds	r23, 0x3ED8	; 0x803ed8 <timingStruct+0x7>
/home/adam/.arduino15/packages/megaTinyCore/hardware/megaavr/2.6.11/cores/megatinycore/wiring.c:183
      SREG = oldSREG;
    1800:	8f bf       	out	0x3f, r24	; 63
seedGameRandom():
/home/adam/bsides-leeds-2026-badge/firmware/firmware.ino:70

uint16_t randomState = 0xACE1u;

void seedGameRandom()
{
  randomState ^= (uint16_t)millis();
    1802:	80 91 00 3e 	lds	r24, 0x3E00	; 0x803e00 <__DATA_REGION_ORIGIN__>
    1806:	90 91 01 3e 	lds	r25, 0x3E01	; 0x803e01 <__DATA_REGION_ORIGIN__+0x1>
    180a:	9c 01       	movw	r18, r24
    180c:	24 27       	eor	r18, r20
    180e:	35 27       	eor	r19, r21
    1810:	20 93 00 3e 	sts	0x3E00, r18	; 0x803e00 <__DATA_REGION_ORIGIN__>
    1814:	30 93 01 3e 	sts	0x3E01, r19	; 0x803e01 <__DATA_REGION_ORIGIN__+0x1>
/home/adam/bsides-leeds-2026-badge/firmware/firmware.ino:71
  if (randomState == 0) {
    1818:	84 17       	cp	r24, r20
    181a:	95 07       	cpc	r25, r21
    181c:	31 f4       	brne	.+12     	; 0x182a <main+0x4ec>
/home/adam/bsides-leeds-2026-badge/firmware/firmware.ino:72
    randomState = 0xACE1u;
    181e:	81 ee       	ldi	r24, 0xE1	; 225
    1820:	9c ea       	ldi	r25, 0xAC	; 172
    1822:	80 93 00 3e 	sts	0x3E00, r24	; 0x803e00 <__DATA_REGION_ORIGIN__>
    1826:	90 93 01 3e 	sts	0x3E01, r25	; 0x803e01 <__DATA_REGION_ORIGIN__+0x1>
handleWakeButtonPress():
/home/adam/bsides-leeds-2026-badge/firmware/firmware.ino:1324

    if (pressedMask != 0) {
      seedGameRandom();
    }

    switch (pressedMask) {
    182a:	94 e0       	ldi	r25, 0x04	; 4
    182c:	f9 16       	cp	r15, r25
    182e:	09 f4       	brne	.+2      	; 0x1832 <main+0x4f4>
    1830:	77 c1       	rjmp	.+750    	; 0x1b20 <main+0x7e2>
    1832:	9f 15       	cp	r25, r15
    1834:	08 f4       	brcc	.+2      	; 0x1838 <main+0x4fa>
    1836:	61 c0       	rjmp	.+194    	; 0x18fa <main+0x5bc>
    1838:	a1 e0       	ldi	r26, 0x01	; 1
    183a:	fa 16       	cp	r15, r26
    183c:	09 f4       	brne	.+2      	; 0x1840 <main+0x502>
    183e:	8b c0       	rjmp	.+278    	; 0x1956 <main+0x618>
    1840:	b2 e0       	ldi	r27, 0x02	; 2
    1842:	fb 16       	cp	r15, r27
    1844:	09 f4       	brne	.+2      	; 0x1848 <main+0x50a>
    1846:	ec c0       	rjmp	.+472    	; 0x1a20 <main+0x6e2>
/home/adam/bsides-leeds-2026-badge/firmware/firmware.ino:1350
        break;
    }
  }

  animationStep = 0;
  totalIntervalMs = 0;
    1848:	41 2c       	mov	r4, r1
    184a:	51 2c       	mov	r5, r1
    184c:	32 01       	movw	r6, r4
/home/adam/bsides-leeds-2026-badge/firmware/firmware.ino:1349
        playFollowTheSequenceTwoPlayer();
        break;
    }
  }

  animationStep = 0;
    184e:	f1 2c       	mov	r15, r1
    1850:	e1 2c       	mov	r14, r1
loop():
/home/adam/bsides-leeds-2026-badge/firmware/firmware.ino:1397
    totalIntervalMs += intervalMs;

    while (intervalMs > 0) {
      showTouchedPads();
      delay(TOUCH_POLL_MS);
      intervalMs -= TOUCH_POLL_MS;
    1852:	0a 50       	subi	r16, 0x0A	; 10
    1854:	11 09       	sbc	r17, r1
/home/adam/bsides-leeds-2026-badge/firmware/firmware.ino:1394
    }

    ++animationStep;
    totalIntervalMs += intervalMs;

    while (intervalMs > 0) {
    1856:	10 16       	cp	r1, r16
    1858:	11 06       	cpc	r1, r17
    185a:	0c f0       	brlt	.+2      	; 0x185e <main+0x520>
    185c:	1e c3       	rjmp	.+1596   	; 0x1e9a <main+0xb5c>
/home/adam/bsides-leeds-2026-badge/firmware/firmware.ino:1395
      showTouchedPads();
    185e:	8d d8       	rcall	.-3814   	; 0x97a <showTouchedPads()>
_delay_ms():
/home/adam/.arduino15/packages/DxCore/tools/avr-gcc/7.3.0-atmel3.6.1-azduino7b1/avr/include/util/delay.h:187
    1860:	ef e4       	ldi	r30, 0x4F	; 79
    1862:	f3 ec       	ldi	r31, 0xC3	; 195
    1864:	31 97       	sbiw	r30, 0x01	; 1
    1866:	f1 f7       	brne	.-4      	; 0x1864 <main+0x526>
    1868:	00 c0       	rjmp	.+0      	; 0x186a <main+0x52c>
    186a:	00 00       	nop
measureWakeButtonLowTime():
/home/adam/bsides-leeds-2026-badge/firmware/firmware.ino:255
  }
}

uint16_t measureWakeButtonLowTime(uint16_t maxMs)
{
  if (digitalRead(WAKE_BUTTON_PIN) == HIGH) {
    186c:	0a d9       	rcall	.-3564   	; 0xa82 <digitalRead.constprop.33>
    186e:	81 30       	cpi	r24, 0x01	; 1
    1870:	81 f3       	breq	.-32     	; 0x1852 <main+0x514>
delay():
    1872:	62 e3       	ldi	r22, 0x32	; 50
    1874:	70 e0       	ldi	r23, 0x00	; 0
    1876:	80 e0       	ldi	r24, 0x00	; 0
    1878:	90 e0       	ldi	r25, 0x00	; 0
    187a:	72 d4       	rcall	.+2276   	; 0x2160 <__TEXT_REGION_LENGTH__+0x160>
main():
/home/adam/bsides-leeds-2026-badge/firmware/firmware.ino:260
    return 0;
  }

  delay(BUTTON_DEBOUNCE_MS);
  uint16_t elapsedMs = BUTTON_DEBOUNCE_MS;
    187c:	62 e3       	ldi	r22, 0x32	; 50
    187e:	e6 2e       	mov	r14, r22
    1880:	f1 2c       	mov	r15, r1
measureWakeButtonLowTime():
/home/adam/bsides-leeds-2026-badge/firmware/firmware.ino:262

  while (digitalRead(WAKE_BUTTON_PIN) == LOW) {
    1882:	ff d8       	rcall	.-3586   	; 0xa82 <digitalRead.constprop.33>
    1884:	81 11       	cpse	r24, r1
    1886:	a2 cf       	rjmp	.-188    	; 0x17cc <main+0x48e>
_delay_ms():
/home/adam/.arduino15/packages/DxCore/tools/avr-gcc/7.3.0-atmel3.6.1-azduino7b1/avr/include/util/delay.h:187
    1888:	87 ea       	ldi	r24, 0xA7	; 167
    188a:	91 e6       	ldi	r25, 0x61	; 97
    188c:	01 97       	sbiw	r24, 0x01	; 1
    188e:	f1 f7       	brne	.-4      	; 0x188c <main+0x54e>
    1890:	00 c0       	rjmp	.+0      	; 0x1892 <main+0x554>
    1892:	00 00       	nop
measureWakeButtonLowTime():
/home/adam/bsides-leeds-2026-badge/firmware/firmware.ino:264
    delay(5);
    elapsedMs += 5;
    1894:	95 e0       	ldi	r25, 0x05	; 5
    1896:	e9 0e       	add	r14, r25
    1898:	f1 1c       	adc	r15, r1
/home/adam/bsides-leeds-2026-badge/firmware/firmware.ino:266

    if (elapsedMs > maxMs) {
    189a:	a5 ed       	ldi	r26, 0xD5	; 213
    189c:	ea 16       	cp	r14, r26
    189e:	a7 e0       	ldi	r26, 0x07	; 7
    18a0:	fa 06       	cpc	r15, r26
    18a2:	79 f7       	brne	.-34     	; 0x1882 <main+0x544>
handleWakeButtonPress():
/home/adam/bsides-leeds-2026-badge/firmware/firmware.ino:1308
  uint16_t &animationStep,
  uint32_t &totalIntervalMs
)
{
  if (heldMs > LONG_PRESS_THRESHOLD_MS) {
    setAllLeds(COLOR_RED, true);
    18a4:	60 91 b7 9f 	lds	r22, 0x9FB7	; 0x809fb7 <__bss_end+0x60c7>
    18a8:	70 91 b8 9f 	lds	r23, 0x9FB8	; 0x809fb8 <__bss_end+0x60c8>
    18ac:	80 91 b9 9f 	lds	r24, 0x9FB9	; 0x809fb9 <__bss_end+0x60c9>
    18b0:	41 e0       	ldi	r20, 0x01	; 1
    18b2:	c7 d7       	rcall	.+3982   	; 0x2842 <__TEXT_REGION_LENGTH__+0x842>
waitForWakeButtonReleased():
/home/adam/bsides-leeds-2026-badge/firmware/firmware.ino:366
  }
}

void waitForWakeButtonReleased()
{
  while (digitalRead(WAKE_BUTTON_PIN) == LOW) {
    18b4:	e6 d8       	rcall	.-3636   	; 0xa82 <digitalRead.constprop.33>
    18b6:	81 11       	cpse	r24, r1
    18b8:	07 c0       	rjmp	.+14     	; 0x18c8 <main+0x58a>
_delay_ms():
/home/adam/.arduino15/packages/DxCore/tools/avr-gcc/7.3.0-atmel3.6.1-azduino7b1/avr/include/util/delay.h:187
    18ba:	87 ea       	ldi	r24, 0xA7	; 167
    18bc:	91 e6       	ldi	r25, 0x61	; 97
    18be:	01 97       	sbiw	r24, 0x01	; 1
    18c0:	f1 f7       	brne	.-4      	; 0x18be <main+0x580>
    18c2:	00 c0       	rjmp	.+0      	; 0x18c4 <main+0x586>
    18c4:	00 00       	nop
    18c6:	f6 cf       	rjmp	.-20     	; 0x18b4 <main+0x576>
waitForWakeButtonReleased():
/home/adam/bsides-leeds-2026-badge/firmware/firmware.ino:366
    18c8:	93 e0       	ldi	r25, 0x03	; 3
miniSleep():
/home/adam/bsides-leeds-2026-badge/firmware/firmware.ino:206
  rebootOnButtonPress = false;
}

void miniSleep(uint8_t period = RTC_PERIOD_CYC16_gc)
{
  RTC.PITINTCTRL = RTC_PI_bm;
    18ca:	41 e0       	ldi	r20, 0x01	; 1
/home/adam/bsides-leeds-2026-badge/firmware/firmware.ino:207
  RTC.PITCTRLA = period | RTC_PITEN_bm;
    18cc:	39 e1       	ldi	r19, 0x19	; 25
/home/adam/bsides-leeds-2026-badge/firmware/firmware.ino:213

  set_sleep_mode(SLEEP_MODE_PWR_DOWN);
  sleep_enable();
  sleep_cpu();

  RTC.PITINTCTRL = ~(RTC_PI_bm);
    18ce:	2e ef       	ldi	r18, 0xFE	; 254
/home/adam/bsides-leeds-2026-badge/firmware/firmware.ino:206
  rebootOnButtonPress = false;
}

void miniSleep(uint8_t period = RTC_PERIOD_CYC16_gc)
{
  RTC.PITINTCTRL = RTC_PI_bm;
    18d0:	40 93 52 01 	sts	0x0152, r20	; 0x800152 <digital_pin_to_bit_mask+0x7f617a>
/home/adam/bsides-leeds-2026-badge/firmware/firmware.ino:207
  RTC.PITCTRLA = period | RTC_PITEN_bm;
    18d4:	30 93 50 01 	sts	0x0150, r19	; 0x800150 <digital_pin_to_bit_mask+0x7f6178>
/home/adam/bsides-leeds-2026-badge/firmware/firmware.ino:209

  set_sleep_mode(SLEEP_MODE_PWR_DOWN);
    18d8:	80 91 50 00 	lds	r24, 0x0050	; 0x800050 <digital_pin_to_bit_mask+0x7f6078>
    18dc:	89 7f       	andi	r24, 0xF9	; 249
    18de:	84 60       	ori	r24, 0x04	; 4
    18e0:	80 93 50 00 	sts	0x0050, r24	; 0x800050 <digital_pin_to_bit_mask+0x7f6078>
/home/adam/bsides-leeds-2026-badge/firmware/firmware.ino:210
  sleep_enable();
    18e4:	80 91 50 00 	lds	r24, 0x0050	; 0x800050 <digital_pin_to_bit_mask+0x7f6078>
    18e8:	81 60       	ori	r24, 0x01	; 1
    18ea:	80 93 50 00 	sts	0x0050, r24	; 0x800050 <digital_pin_to_bit_mask+0x7f6078>
/home/adam/bsides-leeds-2026-badge/firmware/firmware.ino:211
  sleep_cpu();
    18ee:	88 95       	sleep
/home/adam/bsides-leeds-2026-badge/firmware/firmware.ino:213

  RTC.PITINTCTRL = ~(RTC_PI_bm);
    18f0:	20 93 52 01 	sts	0x0152, r18	; 0x800152 <digital_pin_to_bit_mask+0x7f617a>
    18f4:	91 50       	subi	r25, 0x01	; 1
handleWakeButtonPress():
/home/adam/bsides-leeds-2026-badge/firmware/firmware.ino:1311
{
  if (heldMs > LONG_PRESS_THRESHOLD_MS) {
    setAllLeds(COLOR_RED, true);
    waitForWakeButtonReleased();

    for (uint8_t cycle = 0; cycle < SLEEP_DEBOUNCE_CYCLES; ++cycle) {
    18f6:	61 f7       	brne	.-40     	; 0x18d0 <main+0x592>
/home/adam/bsides-leeds-2026-badge/firmware/firmware.ino:1315
      miniSleep();
    }

    enterSleep();
    18f8:	0f d9       	rcall	.-3554   	; 0xb18 <enterSleep()>
/home/adam/bsides-leeds-2026-badge/firmware/firmware.ino:1324

    if (pressedMask != 0) {
      seedGameRandom();
    }

    switch (pressedMask) {
    18fa:	e0 e1       	ldi	r30, 0x10	; 16
    18fc:	fe 16       	cp	r15, r30
    18fe:	09 f4       	brne	.+2      	; 0x1902 <main+0x5c4>
    1900:	60 c2       	rjmp	.+1216   	; 0x1dc2 <main+0xa84>
    1902:	f0 e2       	ldi	r31, 0x20	; 32
    1904:	ff 16       	cp	r15, r31
    1906:	09 f4       	brne	.+2      	; 0x190a <main+0x5cc>
    1908:	80 c1       	rjmp	.+768    	; 0x1c0a <main+0x8cc>
    190a:	28 e0       	ldi	r18, 0x08	; 8
    190c:	f2 12       	cpse	r15, r18
    190e:	9c cf       	rjmp	.-200    	; 0x1848 <main+0x50a>
playFollowTheSequenceTwoPlayer():
/home/adam/bsides-leeds-2026-badge/firmware/firmware.ino:836
  return true;
}

bool playFollowTheSequenceTwoPlayer()
{
  enableRebootOnButton();
    1910:	6c d7       	rcall	.+3800   	; 0x27ea <__TEXT_REGION_LENGTH__+0x7ea>
/home/adam/bsides-leeds-2026-badge/firmware/firmware.ino:839
  uint8_t leftSequence[NUM_SEQUENCE_LEVELS];
  uint8_t rightSequence[NUM_SEQUENCE_LEVELS];
  createRandomSequence(leftSequence, NUM_SEQUENCE_LEVELS);
    1912:	6a e0       	ldi	r22, 0x0A	; 10
    1914:	ce 01       	movw	r24, r28
    1916:	0b 96       	adiw	r24, 0x0b	; 11
    1918:	7a d8       	rcall	.-3852   	; 0xa0e <createRandomSequence(unsigned char*, unsigned char)>
/home/adam/bsides-leeds-2026-badge/firmware/firmware.ino:840
  createDifferentRandomSequence(leftSequence, rightSequence, NUM_SEQUENCE_LEVELS);
    191a:	4a e0       	ldi	r20, 0x0A	; 10
    191c:	be 01       	movw	r22, r28
    191e:	6f 5f       	subi	r22, 0xFF	; 255
    1920:	7f 4f       	sbci	r23, 0xFF	; 255
    1922:	ce 01       	movw	r24, r28
    1924:	0b 96       	adiw	r24, 0x0b	; 11
    1926:	88 d8       	rcall	.-3824   	; 0xa38 <createDifferentRandomSequence(unsigned char const*, unsigned char*, unsigned char)>
main():
/home/adam/bsides-leeds-2026-badge/firmware/firmware.ino:845

  bool leftActive = true;
  bool rightActive = true;
  uint8_t leftScore = 0;
  uint8_t rightScore = 0;
    1928:	b1 2c       	mov	r11, r1
/home/adam/bsides-leeds-2026-badge/firmware/firmware.ino:844
  createRandomSequence(leftSequence, NUM_SEQUENCE_LEVELS);
  createDifferentRandomSequence(leftSequence, rightSequence, NUM_SEQUENCE_LEVELS);

  bool leftActive = true;
  bool rightActive = true;
  uint8_t leftScore = 0;
    192a:	c1 2c       	mov	r12, r1
/home/adam/bsides-leeds-2026-badge/firmware/firmware.ino:843
  uint8_t rightSequence[NUM_SEQUENCE_LEVELS];
  createRandomSequence(leftSequence, NUM_SEQUENCE_LEVELS);
  createDifferentRandomSequence(leftSequence, rightSequence, NUM_SEQUENCE_LEVELS);

  bool leftActive = true;
  bool rightActive = true;
    192c:	ee 24       	eor	r14, r14
    192e:	e3 94       	inc	r14
/home/adam/bsides-leeds-2026-badge/firmware/firmware.ino:842
  uint8_t leftSequence[NUM_SEQUENCE_LEVELS];
  uint8_t rightSequence[NUM_SEQUENCE_LEVELS];
  createRandomSequence(leftSequence, NUM_SEQUENCE_LEVELS);
  createDifferentRandomSequence(leftSequence, rightSequence, NUM_SEQUENCE_LEVELS);

  bool leftActive = true;
    1930:	dd 24       	eor	r13, r13
    1932:	d3 94       	inc	r13
/home/adam/bsides-leeds-2026-badge/firmware/firmware.ino:847
  bool rightActive = true;
  uint8_t leftScore = 0;
  uint8_t rightScore = 0;

  for (uint8_t level = MEMORY_START_LEVEL; level < NUM_SEQUENCE_LEVELS; ++level) {
    1934:	83 e0       	ldi	r24, 0x03	; 3
    1936:	f8 2e       	mov	r15, r24
playFollowTheSequenceTwoPlayer():
/home/adam/bsides-leeds-2026-badge/firmware/firmware.ino:855
    }

    if (leftActive) {
      if (playFollowTheSequenceLevelForPlayer(PLAYER_LEFT, leftSequence, level)) {
        leftScore = level;
        flashPlayerEye(PLAYER_LEFT, COLOR_GREEN, 1);
    1938:	60 90 b4 9f 	lds	r6, 0x9FB4	; 0x809fb4 <__bss_end+0x60c4>
    193c:	70 90 b5 9f 	lds	r7, 0x9FB5	; 0x809fb5 <__bss_end+0x60c5>
    1940:	80 90 b6 9f 	lds	r8, 0x9FB6	; 0x809fb6 <__bss_end+0x60c6>
/home/adam/bsides-leeds-2026-badge/firmware/firmware.ino:848
  bool rightActive = true;
  uint8_t leftScore = 0;
  uint8_t rightScore = 0;

  for (uint8_t level = MEMORY_START_LEVEL; level < NUM_SEQUENCE_LEVELS; ++level) {
    if (!leftActive && !rightActive) {
    1944:	d1 10       	cpse	r13, r1
    1946:	6e c2       	rjmp	.+1244   	; 0x1e24 <main+0xae6>
    1948:	e1 10       	cpse	r14, r1
    194a:	7d c2       	rjmp	.+1274   	; 0x1e46 <main+0xb08>
/home/adam/bsides-leeds-2026-badge/firmware/firmware.ino:877
    if (leftScore != rightScore || (!leftActive && !rightActive)) {
      break;
    }
  }

  showTwoPlayerResult(leftScore, rightScore);
    194c:	6b 2d       	mov	r22, r11
    194e:	8c 2d       	mov	r24, r12
    1950:	2e c2       	rjmp	.+1116   	; 0x1dae <main+0xa70>
handleWakeButtonPress():
/home/adam/bsides-leeds-2026-badge/firmware/firmware.ino:1326
      seedGameRandom();
    }

    switch (pressedMask) {
      case 0:
        ++animationMode;
    1952:	23 94       	inc	r2
    1954:	79 cf       	rjmp	.-270    	; 0x1848 <main+0x50a>
playStopTheLight():
/home/adam/bsides-leeds-2026-badge/firmware/firmware.ino:478
  return false;
}

bool playStopTheLight()
{
  enableRebootOnButton();
    1956:	49 d7       	rcall	.+3730   	; 0x27ea <__TEXT_REGION_LENGTH__+0x7ea>
main():
/home/adam/bsides-leeds-2026-badge/firmware/firmware.ino:479
  for (uint8_t intervalMs = 200; intervalMs > 50; intervalMs -= 20) {
    1958:	58 ec       	ldi	r21, 0xC8	; 200
    195a:	d5 2e       	mov	r13, r21
playStopTheLightLevel():
/home/adam/bsides-leeds-2026-badge/firmware/firmware.ino:453
{
  const uint8_t targetLed = randomEight();

  for (uint8_t round = 0; round < 7; ++round) {
    for (uint8_t ledIndex = 0; ledIndex < 9; ++ledIndex) {
      setAllLeds(COLOR_OFF);
    195c:	40 90 bd 9f 	lds	r4, 0x9FBD	; 0x809fbd <__bss_end+0x60cd>
    1960:	50 90 be 9f 	lds	r5, 0x9FBE	; 0x809fbe <__bss_end+0x60ce>
    1964:	60 90 bf 9f 	lds	r6, 0x9FBF	; 0x809fbf <__bss_end+0x60cf>
randomEight():
/home/adam/bsides-leeds-2026-badge/firmware/firmware.ino:110
  return value;
}

uint8_t randomEight()
{
  return nextRandomByte() & 0x07;
    1968:	3f d8       	rcall	.-3970   	; 0x9e8 <nextRandomByte()>
    196a:	87 70       	andi	r24, 0x07	; 7
    196c:	b8 2e       	mov	r11, r24
    196e:	47 e0       	ldi	r20, 0x07	; 7
    1970:	c4 2e       	mov	r12, r20
playStopTheLightLevel():
/home/adam/bsides-leeds-2026-badge/firmware/firmware.ino:454
  const uint8_t targetLed = randomEight();

  for (uint8_t round = 0; round < 7; ++round) {
    for (uint8_t ledIndex = 0; ledIndex < 9; ++ledIndex) {
      setAllLeds(COLOR_OFF);
      ledStrip.setPixelColor(targetLed, 0, 30, 0);
    1972:	88 2e       	mov	r8, r24
    1974:	91 2c       	mov	r9, r1
randomEight():
/home/adam/bsides-leeds-2026-badge/firmware/firmware.ino:110
  return value;
}

uint8_t randomEight()
{
  return nextRandomByte() & 0x07;
    1976:	f1 2c       	mov	r15, r1
    1978:	e1 2c       	mov	r14, r1
    197a:	7e 2c       	mov	r7, r14
playStopTheLightLevel():
/home/adam/bsides-leeds-2026-badge/firmware/firmware.ino:453
{
  const uint8_t targetLed = randomEight();

  for (uint8_t round = 0; round < 7; ++round) {
    for (uint8_t ledIndex = 0; ledIndex < 9; ++ledIndex) {
      setAllLeds(COLOR_OFF);
    197c:	40 e0       	ldi	r20, 0x00	; 0
    197e:	86 2d       	mov	r24, r6
    1980:	b2 01       	movw	r22, r4
    1982:	5f d7       	rcall	.+3774   	; 0x2842 <__TEXT_REGION_LENGTH__+0x842>
/home/adam/bsides-leeds-2026-badge/firmware/firmware.ino:454
      ledStrip.setPixelColor(targetLed, 0, 30, 0);
    1984:	20 e0       	ldi	r18, 0x00	; 0
    1986:	4e e1       	ldi	r20, 0x1E	; 30
    1988:	60 e0       	ldi	r22, 0x00	; 0
    198a:	c4 01       	movw	r24, r8
    198c:	a3 d3       	rcall	.+1862   	; 0x20d4 <__TEXT_REGION_LENGTH__+0xd4>
/home/adam/bsides-leeds-2026-badge/firmware/firmware.ino:455
      setRightEyeLed(targetLed, 0, 30, 0);
    198e:	20 e0       	ldi	r18, 0x00	; 0
    1990:	4e e1       	ldi	r20, 0x1E	; 30
    1992:	60 e0       	ldi	r22, 0x00	; 0
    1994:	8b 2d       	mov	r24, r11
    1996:	aa d6       	rcall	.+3412   	; 0x26ec <__TEXT_REGION_LENGTH__+0x6ec>
/home/adam/bsides-leeds-2026-badge/firmware/firmware.ino:456
      ledStrip.setPixelColor(ledIndex, 30, 0, 0);
    1998:	20 e0       	ldi	r18, 0x00	; 0
    199a:	40 e0       	ldi	r20, 0x00	; 0
    199c:	6e e1       	ldi	r22, 0x1E	; 30
    199e:	c7 01       	movw	r24, r14
    19a0:	99 d3       	rcall	.+1842   	; 0x20d4 <__TEXT_REGION_LENGTH__+0xd4>
/home/adam/bsides-leeds-2026-badge/firmware/firmware.ino:457
      setRightEyeLed(ledIndex, 30, 0, 0);
    19a2:	20 e0       	ldi	r18, 0x00	; 0
    19a4:	40 e0       	ldi	r20, 0x00	; 0
    19a6:	6e e1       	ldi	r22, 0x1E	; 30
    19a8:	8e 2d       	mov	r24, r14
    19aa:	a0 d6       	rcall	.+3392   	; 0x26ec <__TEXT_REGION_LENGTH__+0x6ec>
/home/adam/bsides-leeds-2026-badge/firmware/firmware.ino:458
      ledStrip.show();
    19ac:	4f d4       	rcall	.+2206   	; 0x224c <__TEXT_REGION_LENGTH__+0x24c>
main():
/home/adam/bsides-leeds-2026-badge/firmware/firmware.ino:460

      uint8_t elapsedMs = 0;
    19ae:	a1 2c       	mov	r10, r1
playStopTheLightLevel():
/home/adam/bsides-leeds-2026-badge/firmware/firmware.ino:462
      while (elapsedMs < iterationIntervalMs) {
        elapsedMs += 5;
    19b0:	45 e0       	ldi	r20, 0x05	; 5
    19b2:	a4 0e       	add	r10, r20
isAnyPadPressed():
/home/adam/bsides-leeds-2026-badge/firmware/firmware.ino:354
  }
}

bool isAnyPadPressed()
{
  return getPressedTouchMask() != 0;
    19b4:	ca d7       	rcall	.+3988   	; 0x294a <__TEXT_REGION_LENGTH__+0x94a>
playStopTheLightLevel():
/home/adam/bsides-leeds-2026-badge/firmware/firmware.ino:464

      uint8_t elapsedMs = 0;
      while (elapsedMs < iterationIntervalMs) {
        elapsedMs += 5;

        if (isAnyPadPressed()) {
    19b6:	88 23       	and	r24, r24
    19b8:	51 f0       	breq	.+20     	; 0x19ce <main+0x690>
playStopTheLight():
/home/adam/bsides-leeds-2026-badge/firmware/firmware.ino:480

bool playStopTheLight()
{
  enableRebootOnButton();
  for (uint8_t intervalMs = 200; intervalMs > 50; intervalMs -= 20) {
    if (!playStopTheLightLevel(intervalMs)) {
    19ba:	b7 14       	cp	r11, r7
    19bc:	d9 f0       	breq	.+54     	; 0x19f4 <main+0x6b6>
showFailure():
/home/adam/bsides-leeds-2026-badge/firmware/firmware.ino:340
  delay(50);
}

void showFailure()
{
  flashNotification(COLOR_RED);
    19be:	60 91 b7 9f 	lds	r22, 0x9FB7	; 0x809fb7 <__bss_end+0x60c7>
    19c2:	70 91 b8 9f 	lds	r23, 0x9FB8	; 0x809fb8 <__bss_end+0x60c8>
    19c6:	80 91 b9 9f 	lds	r24, 0x9FB9	; 0x809fb9 <__bss_end+0x60c9>
    19ca:	91 d9       	rcall	.-3294   	; 0xcee <flashNotification(RgbColor)>
    19cc:	a7 c0       	rjmp	.+334    	; 0x1b1c <main+0x7de>
_delay_ms():
/home/adam/.arduino15/packages/DxCore/tools/avr-gcc/7.3.0-atmel3.6.1-azduino7b1/avr/include/util/delay.h:187
    19ce:	87 ea       	ldi	r24, 0xA7	; 167
    19d0:	91 e6       	ldi	r25, 0x61	; 97
    19d2:	01 97       	sbiw	r24, 0x01	; 1
    19d4:	f1 f7       	brne	.-4      	; 0x19d2 <main+0x694>
    19d6:	00 c0       	rjmp	.+0      	; 0x19d8 <main+0x69a>
    19d8:	00 00       	nop
playStopTheLightLevel():
/home/adam/bsides-leeds-2026-badge/firmware/firmware.ino:461
      ledStrip.setPixelColor(ledIndex, 30, 0, 0);
      setRightEyeLed(ledIndex, 30, 0, 0);
      ledStrip.show();

      uint8_t elapsedMs = 0;
      while (elapsedMs < iterationIntervalMs) {
    19da:	ad 14       	cp	r10, r13
    19dc:	48 f3       	brcs	.-46     	; 0x19b0 <main+0x672>
    19de:	9f ef       	ldi	r25, 0xFF	; 255
    19e0:	e9 1a       	sub	r14, r25
    19e2:	f9 0a       	sbc	r15, r25
/home/adam/bsides-leeds-2026-badge/firmware/firmware.ino:452
bool playStopTheLightLevel(uint8_t iterationIntervalMs)
{
  const uint8_t targetLed = randomEight();

  for (uint8_t round = 0; round < 7; ++round) {
    for (uint8_t ledIndex = 0; ledIndex < 9; ++ledIndex) {
    19e4:	a9 e0       	ldi	r26, 0x09	; 9
    19e6:	ea 16       	cp	r14, r26
    19e8:	f1 04       	cpc	r15, r1
    19ea:	39 f6       	brne	.-114    	; 0x197a <main+0x63c>
    19ec:	ca 94       	dec	r12
/home/adam/bsides-leeds-2026-badge/firmware/firmware.ino:451

bool playStopTheLightLevel(uint8_t iterationIntervalMs)
{
  const uint8_t targetLed = randomEight();

  for (uint8_t round = 0; round < 7; ++round) {
    19ee:	c1 10       	cpse	r12, r1
    19f0:	c2 cf       	rjmp	.-124    	; 0x1976 <main+0x638>
    19f2:	e5 cf       	rjmp	.-54     	; 0x19be <main+0x680>
isAnyPadPressed():
/home/adam/bsides-leeds-2026-badge/firmware/firmware.ino:354
  }
}

bool isAnyPadPressed()
{
  return getPressedTouchMask() != 0;
    19f4:	aa d7       	rcall	.+3924   	; 0x294a <__TEXT_REGION_LENGTH__+0x94a>
playStopTheLight():
/home/adam/bsides-leeds-2026-badge/firmware/firmware.ino:486
      showFailure();
      disableRebootOnButton();
      return false;
    }

    while (isAnyPadPressed()) {
    19f6:	88 23       	and	r24, r24
    19f8:	39 f0       	breq	.+14     	; 0x1a08 <main+0x6ca>
_delay_ms():
/home/adam/.arduino15/packages/DxCore/tools/avr-gcc/7.3.0-atmel3.6.1-azduino7b1/avr/include/util/delay.h:187
    19fa:	e7 ea       	ldi	r30, 0xA7	; 167
    19fc:	f1 e6       	ldi	r31, 0x61	; 97
    19fe:	31 97       	sbiw	r30, 0x01	; 1
    1a00:	f1 f7       	brne	.-4      	; 0x19fe <main+0x6c0>
    1a02:	00 c0       	rjmp	.+0      	; 0x1a04 <main+0x6c6>
    1a04:	00 00       	nop
    1a06:	f6 cf       	rjmp	.-20     	; 0x19f4 <main+0x6b6>
playStopTheLight():
/home/adam/bsides-leeds-2026-badge/firmware/firmware.ino:479
}

bool playStopTheLight()
{
  enableRebootOnButton();
  for (uint8_t intervalMs = 200; intervalMs > 50; intervalMs -= 20) {
    1a08:	fc ee       	ldi	r31, 0xEC	; 236
    1a0a:	df 0e       	add	r13, r31
    1a0c:	28 e2       	ldi	r18, 0x28	; 40
    1a0e:	d2 12       	cpse	r13, r18
    1a10:	ab cf       	rjmp	.-170    	; 0x1968 <main+0x62a>
/home/adam/bsides-leeds-2026-badge/firmware/firmware.ino:491
    while (isAnyPadPressed()) {
      delay(5);
    }
  }

  state = state & B11111110;
    1a12:	80 91 d0 3e 	lds	r24, 0x3ED0	; 0x803ed0 <state>
    1a16:	8e 7f       	andi	r24, 0xFE	; 254
playFollowTheSequence():
/home/adam/bsides-leeds-2026-badge/firmware/firmware.ino:718
      setAllLeds(COLOR_OFF, true);
      delay(500);
    }
  }

  state = state & B11111101;
    1a18:	80 93 d0 3e 	sts	0x3ED0, r24	; 0x803ed0 <state>
/home/adam/bsides-leeds-2026-badge/firmware/firmware.ino:719
  showSuccess();
    1a1c:	9e d9       	rcall	.-3268   	; 0xd5a <showSuccess()>
    1a1e:	7e c0       	rjmp	.+252    	; 0x1b1c <main+0x7de>
playFindTheSequence():
/home/adam/bsides-leeds-2026-badge/firmware/firmware.ino:962
  return isKnownColor;
}

bool playFindTheSequence(uint8_t startingLives = FIND_SEQUENCE_STARTING_LIVES)
{
  enableRebootOnButton();
    1a20:	e4 d6       	rcall	.+3528   	; 0x27ea <__TEXT_REGION_LENGTH__+0x7ea>
/home/adam/bsides-leeds-2026-badge/firmware/firmware.ino:964
  uint8_t sequence[FIND_SEQUENCE_LENGTH];
  createRandomSequence(sequence, FIND_SEQUENCE_LENGTH);
    1a22:	67 e0       	ldi	r22, 0x07	; 7
    1a24:	ce 01       	movw	r24, r28
    1a26:	01 96       	adiw	r24, 0x01	; 1
    1a28:	f2 d7       	rcall	.+4068   	; 0x2a0e <__TEXT_REGION_LENGTH__+0xa0e>
showFindSequencePreview():
/home/adam/bsides-leeds-2026-badge/firmware/firmware.ino:917
  ledStrip.show();
}

void showFindSequencePreview(const uint8_t sequence[])
{
  setAllLeds(COLOR_OFF);
    1a2a:	60 91 bd 9f 	lds	r22, 0x9FBD	; 0x809fbd <__bss_end+0x60cd>
    1a2e:	70 91 be 9f 	lds	r23, 0x9FBE	; 0x809fbe <__bss_end+0x60ce>
    1a32:	80 91 bf 9f 	lds	r24, 0x9FBF	; 0x809fbf <__bss_end+0x60cf>
    1a36:	40 e0       	ldi	r20, 0x00	; 0
    1a38:	04 d7       	rcall	.+3592   	; 0x2842 <__TEXT_REGION_LENGTH__+0x842>
    1a3a:	ce 01       	movw	r24, r28
    1a3c:	01 96       	adiw	r24, 0x01	; 1
    1a3e:	7c 01       	movw	r14, r24
main():
/home/adam/bsides-leeds-2026-badge/firmware/firmware.ino:919

  for (uint8_t sequenceIndex = 0; sequenceIndex < FIND_SEQUENCE_LENGTH; ++sequenceIndex) {
    1a40:	d1 2c       	mov	r13, r1
showFindSequencePreview():
/home/adam/bsides-leeds-2026-badge/firmware/firmware.ino:920
    setSequenceSlotColor(sequenceIndex, sequence[sequenceIndex]);
    1a42:	d7 01       	movw	r26, r14
    1a44:	6d 91       	ld	r22, X+
    1a46:	7d 01       	movw	r14, r26
    1a48:	8d 2d       	mov	r24, r13
    1a4a:	46 d6       	rcall	.+3212   	; 0x26d8 <__TEXT_REGION_LENGTH__+0x6d8>
/home/adam/bsides-leeds-2026-badge/firmware/firmware.ino:919

void showFindSequencePreview(const uint8_t sequence[])
{
  setAllLeds(COLOR_OFF);

  for (uint8_t sequenceIndex = 0; sequenceIndex < FIND_SEQUENCE_LENGTH; ++sequenceIndex) {
    1a4c:	d3 94       	inc	r13
    1a4e:	b7 e0       	ldi	r27, 0x07	; 7
    1a50:	db 12       	cpse	r13, r27
    1a52:	f7 cf       	rjmp	.-18     	; 0x1a42 <main+0x704>
/home/adam/bsides-leeds-2026-badge/firmware/firmware.ino:923
    setSequenceSlotColor(sequenceIndex, sequence[sequenceIndex]);
  }

  ledStrip.show();
    1a54:	fb d3       	rcall	.+2038   	; 0x224c <__TEXT_REGION_LENGTH__+0x24c>
delay():
    1a56:	68 eb       	ldi	r22, 0xB8	; 184
    1a58:	7b e0       	ldi	r23, 0x0B	; 11
    1a5a:	80 e0       	ldi	r24, 0x00	; 0
    1a5c:	90 e0       	ldi	r25, 0x00	; 0
    1a5e:	80 d3       	rcall	.+1792   	; 0x2160 <__TEXT_REGION_LENGTH__+0x160>
showFindSequencePreview():
/home/adam/bsides-leeds-2026-badge/firmware/firmware.ino:925
  delay(FIND_SEQUENCE_PREVIEW_MS);
  showFindSequenceProgress(sequence, 0);
    1a60:	60 e0       	ldi	r22, 0x00	; 0
    1a62:	ce 01       	movw	r24, r28
    1a64:	01 96       	adiw	r24, 0x01	; 1
    1a66:	4f d7       	rcall	.+3742   	; 0x2906 <__TEXT_REGION_LENGTH__+0x906>
main():
/home/adam/bsides-leeds-2026-badge/firmware/firmware.ino:966
{
  enableRebootOnButton();
  uint8_t sequence[FIND_SEQUENCE_LENGTH];
  createRandomSequence(sequence, FIND_SEQUENCE_LENGTH);

  uint8_t livesRemaining = startingLives;
    1a68:	3a e0       	ldi	r19, 0x0A	; 10
    1a6a:	c3 2e       	mov	r12, r19
/home/adam/bsides-leeds-2026-badge/firmware/firmware.ino:967
  uint8_t foundLength = 0;
    1a6c:	f1 2c       	mov	r15, r1
waitForColorGuess():
/home/adam/bsides-leeds-2026-badge/firmware/firmware.ino:946
  setAllLeds(COLOR_OFF, true);
}

bool waitForColorGuess(uint8_t &colorIndex)
{
  uint8_t pressedMask = getPressedTouchMask();
    1a6e:	6d d7       	rcall	.+3802   	; 0x294a <__TEXT_REGION_LENGTH__+0x94a>
    1a70:	e8 2e       	mov	r14, r24
/home/adam/bsides-leeds-2026-badge/firmware/firmware.ino:948

  while (pressedMask == 0) {
    1a72:	e1 10       	cpse	r14, r1
    1a74:	09 c0       	rjmp	.+18     	; 0x1a88 <main+0x74a>
/home/adam/bsides-leeds-2026-badge/firmware/firmware.ino:949
    pressedMask = getPressedTouchMask();
    1a76:	69 d7       	rcall	.+3794   	; 0x294a <__TEXT_REGION_LENGTH__+0x94a>
    1a78:	e8 2e       	mov	r14, r24
_delay_ms():
/home/adam/.arduino15/packages/DxCore/tools/avr-gcc/7.3.0-atmel3.6.1-azduino7b1/avr/include/util/delay.h:187
    1a7a:	ef e4       	ldi	r30, 0x4F	; 79
    1a7c:	f3 ec       	ldi	r31, 0xC3	; 195
    1a7e:	31 97       	sbiw	r30, 0x01	; 1
    1a80:	f1 f7       	brne	.-4      	; 0x1a7e <main+0x740>
    1a82:	00 c0       	rjmp	.+0      	; 0x1a84 <main+0x746>
    1a84:	00 00       	nop
    1a86:	f5 cf       	rjmp	.-22     	; 0x1a72 <main+0x734>
waitForColorGuess():
/home/adam/bsides-leeds-2026-badge/firmware/firmware.ino:953
    delay(TOUCH_POLL_MS);
  }

  showTouchedPads();
    1a88:	78 d7       	rcall	.+3824   	; 0x297a <__TEXT_REGION_LENGTH__+0x97a>
pressedMaskToColorIndex():
/home/adam/bsides-leeds-2026-badge/firmware/firmware.ino:726
  return true;
}

bool pressedMaskToColorIndex(uint8_t pressedMask, uint8_t &colorIndex)
{
  switch (pressedMask) {
    1a8a:	f4 e0       	ldi	r31, 0x04	; 4
    1a8c:	ef 16       	cp	r14, r31
    1a8e:	81 f1       	breq	.+96     	; 0x1af0 <main+0x7b2>
    1a90:	fe 15       	cp	r31, r14
    1a92:	28 f1       	brcs	.+74     	; 0x1ade <main+0x7a0>
    1a94:	21 e0       	ldi	r18, 0x01	; 1
    1a96:	e2 16       	cp	r14, r18
    1a98:	81 f1       	breq	.+96     	; 0x1afa <main+0x7bc>
    1a9a:	42 e0       	ldi	r20, 0x02	; 2
    1a9c:	e4 16       	cp	r14, r20
    1a9e:	81 f1       	breq	.+96     	; 0x1b00 <main+0x7c2>
playFindTheSequence():
/home/adam/bsides-leeds-2026-badge/firmware/firmware.ino:971
  uint8_t livesRemaining = startingLives;
  uint8_t foundLength = 0;
  showFindSequencePreview(sequence);

  while (foundLength < FIND_SEQUENCE_LENGTH && livesRemaining > 0) {
    uint8_t guessedColor = 0;
    1aa0:	e1 2c       	mov	r14, r1
main():
/home/adam/bsides-leeds-2026-badge/firmware/firmware.ino:740
    case LEFT_BLUE_MASK:
    case RIGHT_BLUE_MASK:
      colorIndex = 2;
      return true;
    default:
      return false;
    1aa2:	d1 2c       	mov	r13, r1
waitForColorGuess():
/home/adam/bsides-leeds-2026-badge/firmware/firmware.ino:955
    delay(TOUCH_POLL_MS);
  }

  showTouchedPads();
  const bool isKnownColor = pressedMaskToColorIndex(pressedMask, colorIndex);
  waitForAllTouchPadsReleased();
    1aa4:	a4 da       	rcall	.-2744   	; 0xfee <waitForAllTouchPadsReleased()>
playFindTheSequence():
/home/adam/bsides-leeds-2026-badge/firmware/firmware.ino:974

  while (foundLength < FIND_SEQUENCE_LENGTH && livesRemaining > 0) {
    uint8_t guessedColor = 0;
    const bool hasColorGuess = waitForColorGuess(guessedColor);

    if (hasColorGuess && guessedColor == sequence[foundLength]) {
    1aa6:	dd 20       	and	r13, r13
    1aa8:	69 f1       	breq	.+90     	; 0x1b04 <main+0x7c6>
    1aaa:	e1 e0       	ldi	r30, 0x01	; 1
    1aac:	f0 e0       	ldi	r31, 0x00	; 0
    1aae:	ec 0f       	add	r30, r28
    1ab0:	fd 1f       	adc	r31, r29
    1ab2:	ef 0d       	add	r30, r15
    1ab4:	f1 1d       	adc	r31, r1
    1ab6:	80 81       	ld	r24, Z
    1ab8:	8e 11       	cpse	r24, r14
    1aba:	24 c0       	rjmp	.+72     	; 0x1b04 <main+0x7c6>
/home/adam/bsides-leeds-2026-badge/firmware/firmware.ino:975
      ++foundLength;
    1abc:	f3 94       	inc	r15
/home/adam/bsides-leeds-2026-badge/firmware/firmware.ino:976
      showFindSequenceProgress(sequence, foundLength);
    1abe:	6f 2d       	mov	r22, r15
    1ac0:	ce 01       	movw	r24, r28
    1ac2:	01 96       	adiw	r24, 0x01	; 1
    1ac4:	20 d7       	rcall	.+3648   	; 0x2906 <__TEXT_REGION_LENGTH__+0x906>
delay():
    1ac6:	64 ef       	ldi	r22, 0xF4	; 244
    1ac8:	71 e0       	ldi	r23, 0x01	; 1
    1aca:	80 e0       	ldi	r24, 0x00	; 0
    1acc:	90 e0       	ldi	r25, 0x00	; 0
    1ace:	48 d3       	rcall	.+1680   	; 0x2160 <__TEXT_REGION_LENGTH__+0x160>
playFindTheSequence():
/home/adam/bsides-leeds-2026-badge/firmware/firmware.ino:970

  uint8_t livesRemaining = startingLives;
  uint8_t foundLength = 0;
  showFindSequencePreview(sequence);

  while (foundLength < FIND_SEQUENCE_LENGTH && livesRemaining > 0) {
    1ad0:	b7 e0       	ldi	r27, 0x07	; 7
    1ad2:	fb 12       	cpse	r15, r27
    1ad4:	cc cf       	rjmp	.-104    	; 0x1a6e <main+0x730>
/home/adam/bsides-leeds-2026-badge/firmware/firmware.ino:990
  }

  const bool wonGame = foundLength == FIND_SEQUENCE_LENGTH;

  if (wonGame) {
    state = state & B11111011;
    1ad6:	80 91 d0 3e 	lds	r24, 0x3ED0	; 0x803ed0 <state>
    1ada:	8b 7f       	andi	r24, 0xFB	; 251
    1adc:	9d cf       	rjmp	.-198    	; 0x1a18 <main+0x6da>
pressedMaskToColorIndex():
/home/adam/bsides-leeds-2026-badge/firmware/firmware.ino:726
  return true;
}

bool pressedMaskToColorIndex(uint8_t pressedMask, uint8_t &colorIndex)
{
  switch (pressedMask) {
    1ade:	80 e1       	ldi	r24, 0x10	; 16
    1ae0:	e8 16       	cp	r14, r24
    1ae2:	71 f0       	breq	.+28     	; 0x1b00 <main+0x7c2>
    1ae4:	90 e2       	ldi	r25, 0x20	; 32
    1ae6:	e9 16       	cp	r14, r25
    1ae8:	41 f0       	breq	.+16     	; 0x1afa <main+0x7bc>
    1aea:	a8 e0       	ldi	r26, 0x08	; 8
    1aec:	ea 12       	cpse	r14, r26
    1aee:	d8 cf       	rjmp	.-80     	; 0x1aa0 <main+0x762>
/home/adam/bsides-leeds-2026-badge/firmware/firmware.ino:733
    case RIGHT_RED_MASK:
      colorIndex = 0;
      return true;
    case LEFT_GREEN_MASK:
    case RIGHT_GREEN_MASK:
      colorIndex = 1;
    1af0:	ee 24       	eor	r14, r14
    1af2:	e3 94       	inc	r14
main():
/home/adam/bsides-leeds-2026-badge/firmware/firmware.ino:730
{
  switch (pressedMask) {
    case LEFT_RED_MASK:
    case RIGHT_RED_MASK:
      colorIndex = 0;
      return true;
    1af4:	dd 24       	eor	r13, r13
    1af6:	d3 94       	inc	r13
    1af8:	d5 cf       	rjmp	.-86     	; 0x1aa4 <main+0x766>
pressedMaskToColorIndex():
/home/adam/bsides-leeds-2026-badge/firmware/firmware.ino:737
    case RIGHT_GREEN_MASK:
      colorIndex = 1;
      return true;
    case LEFT_BLUE_MASK:
    case RIGHT_BLUE_MASK:
      colorIndex = 2;
    1afa:	22 e0       	ldi	r18, 0x02	; 2
    1afc:	e2 2e       	mov	r14, r18
    1afe:	fa cf       	rjmp	.-12     	; 0x1af4 <main+0x7b6>
/home/adam/bsides-leeds-2026-badge/firmware/firmware.ino:729
bool pressedMaskToColorIndex(uint8_t pressedMask, uint8_t &colorIndex)
{
  switch (pressedMask) {
    case LEFT_RED_MASK:
    case RIGHT_RED_MASK:
      colorIndex = 0;
    1b00:	e1 2c       	mov	r14, r1
    1b02:	f8 cf       	rjmp	.-16     	; 0x1af4 <main+0x7b6>
playFindTheSequence():
/home/adam/bsides-leeds-2026-badge/firmware/firmware.ino:981
      showFindSequenceProgress(sequence, foundLength);
      delay(500);
      continue;
    }

    --livesRemaining;
    1b04:	ca 94       	dec	r12
showFailure():
/home/adam/bsides-leeds-2026-badge/firmware/firmware.ino:340
  delay(50);
}

void showFailure()
{
  flashNotification(COLOR_RED);
    1b06:	6d a5       	ldd	r22, Y+45	; 0x2d
    1b08:	7e a5       	ldd	r23, Y+46	; 0x2e
    1b0a:	8f a5       	ldd	r24, Y+47	; 0x2f
    1b0c:	f0 d8       	rcall	.-3616   	; 0xcee <flashNotification(RgbColor)>
playFindTheSequence():
/home/adam/bsides-leeds-2026-badge/firmware/firmware.ino:984
    }

    --livesRemaining;
    foundLength = 0;
    showFailure();
    showFindSequenceProgress(sequence, foundLength);
    1b0e:	60 e0       	ldi	r22, 0x00	; 0
    1b10:	ce 01       	movw	r24, r28
    1b12:	01 96       	adiw	r24, 0x01	; 1
    1b14:	f8 d6       	rcall	.+3568   	; 0x2906 <__TEXT_REGION_LENGTH__+0x906>
main():
/home/adam/bsides-leeds-2026-badge/firmware/firmware.ino:982
      delay(500);
      continue;
    }

    --livesRemaining;
    foundLength = 0;
    1b16:	f1 2c       	mov	r15, r1
playFindTheSequence():
/home/adam/bsides-leeds-2026-badge/firmware/firmware.ino:970

  uint8_t livesRemaining = startingLives;
  uint8_t foundLength = 0;
  showFindSequencePreview(sequence);

  while (foundLength < FIND_SEQUENCE_LENGTH && livesRemaining > 0) {
    1b18:	c1 10       	cpse	r12, r1
    1b1a:	a9 cf       	rjmp	.-174    	; 0x1a6e <main+0x730>
playFollowTheSequenceTwoPlayer():
/home/adam/bsides-leeds-2026-badge/firmware/firmware.ino:878
      break;
    }
  }

  showTwoPlayerResult(leftScore, rightScore);
  disableRebootOnButton();
    1b1c:	60 d6       	rcall	.+3264   	; 0x27de <__TEXT_REGION_LENGTH__+0x7de>
    1b1e:	94 ce       	rjmp	.-728    	; 0x1848 <main+0x50a>
playFollowTheSequence():
/home/adam/bsides-leeds-2026-badge/firmware/firmware.ino:680
  newSequence[0] = (newSequence[0] + 1) % 3;
}

bool playFollowTheSequence()
{
  enableRebootOnButton();
    1b20:	64 d6       	rcall	.+3272   	; 0x27ea <__TEXT_REGION_LENGTH__+0x7ea>
/home/adam/bsides-leeds-2026-badge/firmware/firmware.ino:682
  uint8_t sequence[NUM_SEQUENCE_LEVELS];
  createRandomSequence(sequence, NUM_SEQUENCE_LEVELS);
    1b22:	6a e0       	ldi	r22, 0x0A	; 10
    1b24:	fe 01       	movw	r30, r28
    1b26:	31 96       	adiw	r30, 0x01	; 1
    1b28:	6f 01       	movw	r12, r30
    1b2a:	cf 01       	movw	r24, r30
    1b2c:	70 d7       	rcall	.+3808   	; 0x2a0e <__TEXT_REGION_LENGTH__+0xa0e>
main():
/home/adam/bsides-leeds-2026-badge/firmware/firmware.ino:684

  for (uint8_t level = MEMORY_START_LEVEL; level < NUM_SEQUENCE_LEVELS; ++level) {
    1b2e:	93 e0       	ldi	r25, 0x03	; 3
    1b30:	f9 2e       	mov	r15, r25
playFollowTheSequence():
/home/adam/bsides-leeds-2026-badge/firmware/firmware.ino:689
    for (uint8_t sequenceIndex = 0; sequenceIndex < level; ++sequenceIndex) {
      showSequenceColor(sequence[sequenceIndex]);
      ledStrip.show();
      delay(400);
      setAllLeds(COLOR_OFF, true);
    1b32:	40 90 bd 9f 	lds	r4, 0x9FBD	; 0x809fbd <__bss_end+0x60cd>
    1b36:	50 90 be 9f 	lds	r5, 0x9FBE	; 0x809fbe <__bss_end+0x60ce>
    1b3a:	60 90 bf 9f 	lds	r6, 0x9FBF	; 0x809fbf <__bss_end+0x60cf>
    1b3e:	ec 2c       	mov	r14, r12
    1b40:	56 01       	movw	r10, r12
main():
/home/adam/bsides-leeds-2026-badge/firmware/firmware.ino:684
{
  enableRebootOnButton();
  uint8_t sequence[NUM_SEQUENCE_LEVELS];
  createRandomSequence(sequence, NUM_SEQUENCE_LEVELS);

  for (uint8_t level = MEMORY_START_LEVEL; level < NUM_SEQUENCE_LEVELS; ++level) {
    1b42:	46 01       	movw	r8, r12
showSequenceColor():
/home/adam/bsides-leeds-2026-badge/firmware/firmware.ino:633
  }
}

void showSequenceColor(uint8_t colorIndex)
{
  setAllLeds(colorForIndex(colorIndex));
    1b44:	d4 01       	movw	r26, r8
    1b46:	8d 91       	ld	r24, X+
    1b48:	4d 01       	movw	r8, r26
    1b4a:	b4 d5       	rcall	.+2920   	; 0x26b4 <__TEXT_REGION_LENGTH__+0x6b4>
    1b4c:	40 e0       	ldi	r20, 0x00	; 0
    1b4e:	79 d6       	rcall	.+3314   	; 0x2842 <__TEXT_REGION_LENGTH__+0x842>
playFollowTheSequence():
/home/adam/bsides-leeds-2026-badge/firmware/firmware.ino:687
  createRandomSequence(sequence, NUM_SEQUENCE_LEVELS);

  for (uint8_t level = MEMORY_START_LEVEL; level < NUM_SEQUENCE_LEVELS; ++level) {
    for (uint8_t sequenceIndex = 0; sequenceIndex < level; ++sequenceIndex) {
      showSequenceColor(sequence[sequenceIndex]);
      ledStrip.show();
    1b50:	7d d3       	rcall	.+1786   	; 0x224c <__TEXT_REGION_LENGTH__+0x24c>
delay():
    1b52:	60 e9       	ldi	r22, 0x90	; 144
    1b54:	71 e0       	ldi	r23, 0x01	; 1
    1b56:	80 e0       	ldi	r24, 0x00	; 0
    1b58:	90 e0       	ldi	r25, 0x00	; 0
    1b5a:	02 d3       	rcall	.+1540   	; 0x2160 <__TEXT_REGION_LENGTH__+0x160>
playFollowTheSequence():
/home/adam/bsides-leeds-2026-badge/firmware/firmware.ino:689
      delay(400);
      setAllLeds(COLOR_OFF, true);
    1b5c:	41 e0       	ldi	r20, 0x01	; 1
    1b5e:	86 2d       	mov	r24, r6
    1b60:	b2 01       	movw	r22, r4
    1b62:	6f d6       	rcall	.+3294   	; 0x2842 <__TEXT_REGION_LENGTH__+0x842>
delay():
    1b64:	68 ec       	ldi	r22, 0xC8	; 200
    1b66:	70 e0       	ldi	r23, 0x00	; 0
    1b68:	80 e0       	ldi	r24, 0x00	; 0
    1b6a:	90 e0       	ldi	r25, 0x00	; 0
    1b6c:	f9 d2       	rcall	.+1522   	; 0x2160 <__TEXT_REGION_LENGTH__+0x160>
playFollowTheSequence():
/home/adam/bsides-leeds-2026-badge/firmware/firmware.ino:685
  enableRebootOnButton();
  uint8_t sequence[NUM_SEQUENCE_LEVELS];
  createRandomSequence(sequence, NUM_SEQUENCE_LEVELS);

  for (uint8_t level = MEMORY_START_LEVEL; level < NUM_SEQUENCE_LEVELS; ++level) {
    for (uint8_t sequenceIndex = 0; sequenceIndex < level; ++sequenceIndex) {
    1b6e:	88 2d       	mov	r24, r8
    1b70:	8c 19       	sub	r24, r12
    1b72:	8f 15       	cp	r24, r15
    1b74:	38 f3       	brcs	.-50     	; 0x1b44 <main+0x806>
/home/adam/bsides-leeds-2026-badge/firmware/firmware.ino:694
      setAllLeds(COLOR_OFF, true);
      delay(200);
    }

    for (uint8_t sequenceIndex = 0; sequenceIndex < level; ++sequenceIndex) {
      uint8_t pressedMask = getPressedTouchMask();
    1b76:	e9 d6       	rcall	.+3538   	; 0x294a <__TEXT_REGION_LENGTH__+0x94a>
    1b78:	98 2e       	mov	r9, r24
/home/adam/bsides-leeds-2026-badge/firmware/firmware.ino:696

      while (pressedMask == 0) {
    1b7a:	91 10       	cpse	r9, r1
    1b7c:	09 c0       	rjmp	.+18     	; 0x1b90 <main+0x852>
/home/adam/bsides-leeds-2026-badge/firmware/firmware.ino:697
        pressedMask = getPressedTouchMask();
    1b7e:	e5 d6       	rcall	.+3530   	; 0x294a <__TEXT_REGION_LENGTH__+0x94a>
    1b80:	98 2e       	mov	r9, r24
_delay_ms():
/home/adam/.arduino15/packages/DxCore/tools/avr-gcc/7.3.0-atmel3.6.1-azduino7b1/avr/include/util/delay.h:187
    1b82:	ef e4       	ldi	r30, 0x4F	; 79
    1b84:	f3 ec       	ldi	r31, 0xC3	; 195
    1b86:	31 97       	sbiw	r30, 0x01	; 1
    1b88:	f1 f7       	brne	.-4      	; 0x1b86 <main+0x848>
    1b8a:	00 c0       	rjmp	.+0      	; 0x1b8c <main+0x84e>
    1b8c:	00 00       	nop
    1b8e:	f5 cf       	rjmp	.-22     	; 0x1b7a <main+0x83c>
playFollowTheSequence():
/home/adam/bsides-leeds-2026-badge/firmware/firmware.ino:701
        delay(TOUCH_POLL_MS);
      }

      showTouchedPads();
    1b90:	f4 d6       	rcall	.+3560   	; 0x297a <__TEXT_REGION_LENGTH__+0x97a>
isAnyPadPressed():
/home/adam/bsides-leeds-2026-badge/firmware/firmware.ino:354
  }
}

bool isAnyPadPressed()
{
  return getPressedTouchMask() != 0;
    1b92:	db d6       	rcall	.+3510   	; 0x294a <__TEXT_REGION_LENGTH__+0x94a>
playFollowTheSequence():
/home/adam/bsides-leeds-2026-badge/firmware/firmware.ino:703
        delay(TOUCH_POLL_MS);
      }

      showTouchedPads();

      while (isAnyPadPressed()) {
    1b94:	88 23       	and	r24, r24
    1b96:	39 f0       	breq	.+14     	; 0x1ba6 <main+0x868>
_delay_ms():
/home/adam/.arduino15/packages/DxCore/tools/avr-gcc/7.3.0-atmel3.6.1-azduino7b1/avr/include/util/delay.h:187
    1b98:	8f e4       	ldi	r24, 0x4F	; 79
    1b9a:	93 ec       	ldi	r25, 0xC3	; 195
    1b9c:	01 97       	sbiw	r24, 0x01	; 1
    1b9e:	f1 f7       	brne	.-4      	; 0x1b9c <main+0x85e>
    1ba0:	00 c0       	rjmp	.+0      	; 0x1ba2 <main+0x864>
    1ba2:	00 00       	nop
    1ba4:	f6 cf       	rjmp	.-20     	; 0x1b92 <main+0x854>
playFollowTheSequence():
/home/adam/bsides-leeds-2026-badge/firmware/firmware.ino:707
        delay(TOUCH_POLL_MS);
      }

      if (!isExpectedSequenceButton(sequence[sequenceIndex], pressedMask)) {
    1ba6:	d5 01       	movw	r26, r10
    1ba8:	8d 91       	ld	r24, X+
    1baa:	5d 01       	movw	r10, r26
isExpectedSequenceButton():
/home/adam/bsides-leeds-2026-badge/firmware/firmware.ino:619
  return leftScore != rightScore;
}

bool isExpectedSequenceButton(uint8_t expectedColor, uint8_t pressedMask)
{
  switch (expectedColor) {
    1bac:	81 30       	cpi	r24, 0x01	; 1
    1bae:	31 f1       	breq	.+76     	; 0x1bfc <main+0x8be>
    1bb0:	50 f0       	brcs	.+20     	; 0x1bc6 <main+0x888>
    1bb2:	82 30       	cpi	r24, 0x02	; 2
    1bb4:	09 f0       	breq	.+2      	; 0x1bb8 <main+0x87a>
    1bb6:	03 cf       	rjmp	.-506    	; 0x19be <main+0x680>
/home/adam/bsides-leeds-2026-badge/firmware/firmware.ino:625
    case 0:
      return pressedMask == LEFT_RED_MASK || pressedMask == RIGHT_RED_MASK;
    case 1:
      return pressedMask == LEFT_GREEN_MASK || pressedMask == RIGHT_GREEN_MASK;
    case 2:
      return pressedMask == LEFT_BLUE_MASK || pressedMask == RIGHT_BLUE_MASK;
    1bb8:	41 e0       	ldi	r20, 0x01	; 1
    1bba:	94 16       	cp	r9, r20
    1bbc:	51 f0       	breq	.+20     	; 0x1bd2 <main+0x894>
    1bbe:	80 e2       	ldi	r24, 0x20	; 32
    1bc0:	98 12       	cpse	r9, r24
    1bc2:	fd ce       	rjmp	.-518    	; 0x19be <main+0x680>
    1bc4:	06 c0       	rjmp	.+12     	; 0x1bd2 <main+0x894>
/home/adam/bsides-leeds-2026-badge/firmware/firmware.ino:621

bool isExpectedSequenceButton(uint8_t expectedColor, uint8_t pressedMask)
{
  switch (expectedColor) {
    case 0:
      return pressedMask == LEFT_RED_MASK || pressedMask == RIGHT_RED_MASK;
    1bc6:	b2 e0       	ldi	r27, 0x02	; 2
    1bc8:	9b 16       	cp	r9, r27
    1bca:	19 f0       	breq	.+6      	; 0x1bd2 <main+0x894>
    1bcc:	e0 e1       	ldi	r30, 0x10	; 16
    1bce:	9e 12       	cpse	r9, r30
    1bd0:	f6 ce       	rjmp	.-532    	; 0x19be <main+0x680>
playFollowTheSequence():
/home/adam/bsides-leeds-2026-badge/firmware/firmware.ino:713
        showFailure();
        disableRebootOnButton();
        return false;
      }

      setAllLeds(COLOR_OFF, true);
    1bd2:	41 e0       	ldi	r20, 0x01	; 1
    1bd4:	86 2d       	mov	r24, r6
    1bd6:	b2 01       	movw	r22, r4
    1bd8:	34 d6       	rcall	.+3176   	; 0x2842 <__TEXT_REGION_LENGTH__+0x842>
delay():
    1bda:	64 ef       	ldi	r22, 0xF4	; 244
    1bdc:	71 e0       	ldi	r23, 0x01	; 1
    1bde:	80 e0       	ldi	r24, 0x00	; 0
    1be0:	90 e0       	ldi	r25, 0x00	; 0
    1be2:	be d2       	rcall	.+1404   	; 0x2160 <__TEXT_REGION_LENGTH__+0x160>
playFollowTheSequence():
/home/adam/bsides-leeds-2026-badge/firmware/firmware.ino:693
      delay(400);
      setAllLeds(COLOR_OFF, true);
      delay(200);
    }

    for (uint8_t sequenceIndex = 0; sequenceIndex < level; ++sequenceIndex) {
    1be4:	8a 2d       	mov	r24, r10
    1be6:	8e 19       	sub	r24, r14
    1be8:	8f 15       	cp	r24, r15
    1bea:	28 f2       	brcs	.-118    	; 0x1b76 <main+0x838>
/home/adam/bsides-leeds-2026-badge/firmware/firmware.ino:684
{
  enableRebootOnButton();
  uint8_t sequence[NUM_SEQUENCE_LEVELS];
  createRandomSequence(sequence, NUM_SEQUENCE_LEVELS);

  for (uint8_t level = MEMORY_START_LEVEL; level < NUM_SEQUENCE_LEVELS; ++level) {
    1bec:	f3 94       	inc	r15
    1bee:	9a e0       	ldi	r25, 0x0A	; 10
    1bf0:	f9 12       	cpse	r15, r25
    1bf2:	a6 cf       	rjmp	.-180    	; 0x1b40 <main+0x802>
/home/adam/bsides-leeds-2026-badge/firmware/firmware.ino:718
      setAllLeds(COLOR_OFF, true);
      delay(500);
    }
  }

  state = state & B11111101;
    1bf4:	80 91 d0 3e 	lds	r24, 0x3ED0	; 0x803ed0 <state>
    1bf8:	8d 7f       	andi	r24, 0xFD	; 253
    1bfa:	0e cf       	rjmp	.-484    	; 0x1a18 <main+0x6da>
isExpectedSequenceButton():
/home/adam/bsides-leeds-2026-badge/firmware/firmware.ino:623
{
  switch (expectedColor) {
    case 0:
      return pressedMask == LEFT_RED_MASK || pressedMask == RIGHT_RED_MASK;
    case 1:
      return pressedMask == LEFT_GREEN_MASK || pressedMask == RIGHT_GREEN_MASK;
    1bfc:	f4 e0       	ldi	r31, 0x04	; 4
    1bfe:	9f 16       	cp	r9, r31
    1c00:	41 f3       	breq	.-48     	; 0x1bd2 <main+0x894>
    1c02:	28 e0       	ldi	r18, 0x08	; 8
    1c04:	92 12       	cpse	r9, r18
    1c06:	db ce       	rjmp	.-586    	; 0x19be <main+0x680>
    1c08:	e4 cf       	rjmp	.-56     	; 0x1bd2 <main+0x894>
playStopTheLightTwoPlayer():
/home/adam/bsides-leeds-2026-badge/firmware/firmware.ino:569
  }
}

bool playStopTheLightTwoPlayer()
{
  enableRebootOnButton();
    1c0a:	ef d5       	rcall	.+3038   	; 0x27ea <__TEXT_REGION_LENGTH__+0x7ea>
    1c0c:	44 24       	eor	r4, r4
    1c0e:	43 94       	inc	r4
main():
/home/adam/bsides-leeds-2026-badge/firmware/firmware.ino:570
  bool leftActive = true;
    1c10:	ee 24       	eor	r14, r14
    1c12:	e3 94       	inc	r14
/home/adam/bsides-leeds-2026-badge/firmware/firmware.ino:576
  bool rightActive = true;
  uint8_t leftScore = 0;
  uint8_t rightScore = 0;
  uint8_t level = 0;

  for (uint8_t intervalMs = 200; intervalMs > 50; intervalMs -= 20) {
    1c14:	a8 ec       	ldi	r26, 0xC8	; 200
    1c16:	af 8b       	std	Y+23, r26	; 0x17
/home/adam/bsides-leeds-2026-badge/firmware/firmware.ino:571

bool playStopTheLightTwoPlayer()
{
  enableRebootOnButton();
  bool leftActive = true;
  bool rightActive = true;
    1c18:	ff 24       	eor	r15, r15
    1c1a:	f3 94       	inc	r15
/home/adam/bsides-leeds-2026-badge/firmware/firmware.ino:572
  uint8_t leftScore = 0;
    1c1c:	1b 8e       	std	Y+27, r1	; 0x1b
/home/adam/bsides-leeds-2026-badge/firmware/firmware.ino:573
  uint8_t rightScore = 0;
    1c1e:	1c 8e       	std	Y+28, r1	; 0x1c
showStopTheLightTwoPlayerFrame():
/home/adam/bsides-leeds-2026-badge/firmware/firmware.ino:499
  return true;
}

void showStopTheLightTwoPlayerFrame(uint8_t targetLed, uint8_t runnerLed, bool showLeft, bool showRight)
{
  setAllLeds(COLOR_OFF);
    1c20:	80 90 bd 9f 	lds	r8, 0x9FBD	; 0x809fbd <__bss_end+0x60cd>
    1c24:	90 90 be 9f 	lds	r9, 0x9FBE	; 0x809fbe <__bss_end+0x60ce>
    1c28:	a0 90 bf 9f 	lds	r10, 0x9FBF	; 0x809fbf <__bss_end+0x60cf>
randomLedIndex():
/home/adam/bsides-leeds-2026-badge/firmware/firmware.ino:102

uint8_t randomLedIndex()
{
  uint8_t value;
  do {
    value = nextRandomByte() & 0x0F;
    1c2c:	dd d6       	rcall	.+3514   	; 0x29e8 <__TEXT_REGION_LENGTH__+0x9e8>
    1c2e:	8f 70       	andi	r24, 0x0F	; 15
    1c30:	8d 8b       	std	Y+21, r24	; 0x15
/home/adam/bsides-leeds-2026-badge/firmware/firmware.ino:103
  } while (value >= LEDS_PER_EYE);
    1c32:	89 30       	cpi	r24, 0x09	; 9
    1c34:	d8 f7       	brcc	.-10     	; 0x1c2c <main+0x8ee>
playStopTheLightTwoPlayerLevel():
/home/adam/bsides-leeds-2026-badge/firmware/firmware.ino:523
  bool &leftPassed,
  bool &rightPassed
)
{
  const uint8_t targetLed = randomLedIndex();
  bool leftAnswered = !leftActive;
    1c36:	dd 24       	eor	r13, r13
    1c38:	d3 94       	inc	r13
    1c3a:	de 24       	eor	r13, r14
/home/adam/bsides-leeds-2026-badge/firmware/firmware.ino:524
  bool rightAnswered = !rightActive;
    1c3c:	cc 24       	eor	r12, r12
    1c3e:	c3 94       	inc	r12
    1c40:	cf 24       	eor	r12, r15
    1c42:	b7 e0       	ldi	r27, 0x07	; 7
    1c44:	bd 8f       	std	Y+29, r27	; 0x1d
/home/adam/bsides-leeds-2026-badge/firmware/firmware.ino:527

  leftPassed = false;
  rightPassed = false;
    1c46:	1e 8a       	std	Y+22, r1	; 0x16
/home/adam/bsides-leeds-2026-badge/firmware/firmware.ino:526
{
  const uint8_t targetLed = randomLedIndex();
  bool leftAnswered = !leftActive;
  bool rightAnswered = !rightActive;

  leftPassed = false;
    1c48:	b1 2c       	mov	r11, r1
setPlayerEyeLed():
/home/adam/bsides-leeds-2026-badge/firmware/firmware.ino:409
}

void setPlayerEyeLed(uint8_t player, uint8_t ledIndex, RgbColor color)
{
  if (player == PLAYER_LEFT) {
    ledStrip.setPixelColor(ledIndex, color.red, color.green, color.blue);
    1c4a:	e8 2f       	mov	r30, r24
    1c4c:	f0 e0       	ldi	r31, 0x00	; 0
    1c4e:	ef 8f       	std	Y+31, r30	; 0x1f
    1c50:	f8 a3       	std	Y+32, r31	; 0x20
playStopTheLightTwoPlayerLevel():
/home/adam/bsides-leeds-2026-badge/firmware/firmware.ino:526
{
  const uint8_t targetLed = randomLedIndex();
  bool leftAnswered = !leftActive;
  bool rightAnswered = !rightActive;

  leftPassed = false;
    1c52:	71 2c       	mov	r7, r1
    1c54:	61 2c       	mov	r6, r1
    1c56:	6a 8e       	std	Y+26, r6	; 0x1a
/home/adam/bsides-leeds-2026-badge/firmware/firmware.ino:531
  rightPassed = false;

  for (uint8_t round = 0; round < 7; ++round) {
    for (uint8_t runnerLed = 0; runnerLed < LEDS_PER_EYE; ++runnerLed) {
      showStopTheLightTwoPlayerFrame(
    1c58:	55 24       	eor	r5, r5
    1c5a:	53 94       	inc	r5
    1c5c:	5c 24       	eor	r5, r12
    1c5e:	f1 10       	cpse	r15, r1
    1c60:	01 c0       	rjmp	.+2      	; 0x1c64 <main+0x926>
main():
    1c62:	51 2c       	mov	r5, r1
playStopTheLightTwoPlayerLevel():
    1c64:	ee 20       	and	r14, r14
    1c66:	09 f4       	brne	.+2      	; 0x1c6a <main+0x92c>
    1c68:	43 c0       	rjmp	.+134    	; 0x1cf0 <main+0x9b2>
    1c6a:	21 e0       	ldi	r18, 0x01	; 1
    1c6c:	2d 25       	eor	r18, r13
    1c6e:	2e 8f       	std	Y+30, r18	; 0x1e
showStopTheLightTwoPlayerFrame():
/home/adam/bsides-leeds-2026-badge/firmware/firmware.ino:499
  return true;
}

void showStopTheLightTwoPlayerFrame(uint8_t targetLed, uint8_t runnerLed, bool showLeft, bool showRight)
{
  setAllLeds(COLOR_OFF);
    1c70:	40 e0       	ldi	r20, 0x00	; 0
    1c72:	8a 2d       	mov	r24, r10
    1c74:	b4 01       	movw	r22, r8
    1c76:	e5 d5       	rcall	.+3018   	; 0x2842 <__TEXT_REGION_LENGTH__+0x842>
/home/adam/bsides-leeds-2026-badge/firmware/firmware.ino:501

  if (showLeft) {
    1c78:	4e 8d       	ldd	r20, Y+30	; 0x1e
    1c7a:	44 23       	and	r20, r20
    1c7c:	59 f0       	breq	.+22     	; 0x1c94 <main+0x956>
setPlayerEyeLed():
/home/adam/bsides-leeds-2026-badge/firmware/firmware.ino:409
}

void setPlayerEyeLed(uint8_t player, uint8_t ledIndex, RgbColor color)
{
  if (player == PLAYER_LEFT) {
    ledStrip.setPixelColor(ledIndex, color.red, color.green, color.blue);
    1c7e:	20 e0       	ldi	r18, 0x00	; 0
    1c80:	4e e1       	ldi	r20, 0x1E	; 30
    1c82:	60 e0       	ldi	r22, 0x00	; 0
    1c84:	8f 8d       	ldd	r24, Y+31	; 0x1f
    1c86:	98 a1       	ldd	r25, Y+32	; 0x20
    1c88:	25 d2       	rcall	.+1098   	; 0x20d4 <__TEXT_REGION_LENGTH__+0xd4>
    1c8a:	20 e0       	ldi	r18, 0x00	; 0
    1c8c:	40 e0       	ldi	r20, 0x00	; 0
    1c8e:	6e e1       	ldi	r22, 0x1E	; 30
    1c90:	c3 01       	movw	r24, r6
    1c92:	20 d2       	rcall	.+1088   	; 0x20d4 <__TEXT_REGION_LENGTH__+0xd4>
showStopTheLightTwoPlayerFrame():
/home/adam/bsides-leeds-2026-badge/firmware/firmware.ino:506
  if (showLeft) {
    setPlayerEyeLed(PLAYER_LEFT, targetLed, COLOR_GREEN);
    setPlayerEyeLed(PLAYER_LEFT, runnerLed, COLOR_RED);
  }

  if (showRight) {
    1c94:	55 20       	and	r5, r5
    1c96:	51 f0       	breq	.+20     	; 0x1cac <main+0x96e>
setPlayerEyeLed():
/home/adam/bsides-leeds-2026-badge/firmware/firmware.ino:411
void setPlayerEyeLed(uint8_t player, uint8_t ledIndex, RgbColor color)
{
  if (player == PLAYER_LEFT) {
    ledStrip.setPixelColor(ledIndex, color.red, color.green, color.blue);
  } else {
    setRightEyeLed(ledIndex, color.red, color.green, color.blue);
    1c98:	20 e0       	ldi	r18, 0x00	; 0
    1c9a:	4e e1       	ldi	r20, 0x1E	; 30
    1c9c:	60 e0       	ldi	r22, 0x00	; 0
    1c9e:	8d 89       	ldd	r24, Y+21	; 0x15
    1ca0:	25 d5       	rcall	.+2634   	; 0x26ec <__TEXT_REGION_LENGTH__+0x6ec>
    1ca2:	20 e0       	ldi	r18, 0x00	; 0
    1ca4:	40 e0       	ldi	r20, 0x00	; 0
    1ca6:	6e e1       	ldi	r22, 0x1E	; 30
    1ca8:	8a 8d       	ldd	r24, Y+26	; 0x1a
    1caa:	20 d5       	rcall	.+2624   	; 0x26ec <__TEXT_REGION_LENGTH__+0x6ec>
showStopTheLightTwoPlayerFrame():
/home/adam/bsides-leeds-2026-badge/firmware/firmware.ino:511
  if (showRight) {
    setPlayerEyeLed(PLAYER_RIGHT, targetLed, COLOR_GREEN);
    setPlayerEyeLed(PLAYER_RIGHT, runnerLed, COLOR_RED);
  }

  ledStrip.show();
    1cac:	cf d2       	rcall	.+1438   	; 0x224c <__TEXT_REGION_LENGTH__+0x24c>
main():
/home/adam/bsides-leeds-2026-badge/firmware/firmware.ino:538
        runnerLed,
        leftActive && !leftAnswered,
        rightActive && !rightAnswered
      );

      uint8_t elapsedMs = 0;
    1cae:	51 2c       	mov	r5, r1
playStopTheLightTwoPlayerLevel():
/home/adam/bsides-leeds-2026-badge/firmware/firmware.ino:539
      while (elapsedMs < iterationIntervalMs && !(leftAnswered && rightAnswered)) {
    1cb0:	dd 20       	and	r13, r13
    1cb2:	11 f0       	breq	.+4      	; 0x1cb8 <main+0x97a>
    1cb4:	c1 10       	cpse	r12, r1
    1cb6:	53 c0       	rjmp	.+166    	; 0x1d5e <main+0xa20>
/home/adam/bsides-leeds-2026-badge/firmware/firmware.ino:540
        const uint8_t pressedMask = getPressedTouchMask();
    1cb8:	48 d6       	rcall	.+3216   	; 0x294a <__TEXT_REGION_LENGTH__+0x94a>
/home/adam/bsides-leeds-2026-badge/firmware/firmware.ino:542

        if (leftActive && !leftAnswered && (pressedMask & (LEFT_BLUE_MASK | LEFT_RED_MASK | LEFT_GREEN_MASK))) {
    1cba:	ee 20       	and	r14, r14
    1cbc:	d9 f0       	breq	.+54     	; 0x1cf4 <main+0x9b6>
    1cbe:	d1 10       	cpse	r13, r1
    1cc0:	0a c0       	rjmp	.+20     	; 0x1cd6 <main+0x998>
    1cc2:	98 2f       	mov	r25, r24
    1cc4:	97 70       	andi	r25, 0x07	; 7
    1cc6:	09 f4       	brne	.+2      	; 0x1cca <main+0x98c>
    1cc8:	fa c0       	rjmp	.+500    	; 0x1ebe <main+0xb80>
/home/adam/bsides-leeds-2026-badge/firmware/firmware.ino:544
          leftAnswered = true;
          leftPassed = runnerLed == targetLed;
    1cca:	bb 24       	eor	r11, r11
    1ccc:	b3 94       	inc	r11
    1cce:	9a 8d       	ldd	r25, Y+26	; 0x1a
    1cd0:	ad 89       	ldd	r26, Y+21	; 0x15
    1cd2:	9a 13       	cpse	r25, r26
    1cd4:	b1 2c       	mov	r11, r1
/home/adam/bsides-leeds-2026-badge/firmware/firmware.ino:547
        }

        if (rightActive && !rightAnswered && (pressedMask & (RIGHT_BLUE_MASK | RIGHT_RED_MASK | RIGHT_GREEN_MASK))) {
    1cd6:	ff 20       	and	r15, r15
    1cd8:	09 f1       	breq	.+66     	; 0x1d1c <main+0x9de>
    1cda:	c1 10       	cpse	r12, r1
    1cdc:	42 c0       	rjmp	.+132    	; 0x1d62 <main+0xa24>
    1cde:	df 2c       	mov	r13, r15
    1ce0:	0d c0       	rjmp	.+26     	; 0x1cfc <main+0x9be>
playStopTheLightTwoPlayer():
/home/adam/bsides-leeds-2026-badge/firmware/firmware.ino:577
  uint8_t leftScore = 0;
  uint8_t rightScore = 0;
  uint8_t level = 0;

  for (uint8_t intervalMs = 200; intervalMs > 50; intervalMs -= 20) {
    if (!leftActive && !rightActive) {
    1ce2:	e1 10       	cpse	r14, r1
    1ce4:	03 c0       	rjmp	.+6      	; 0x1cec <main+0x9ae>
    1ce6:	ff 20       	and	r15, r15
    1ce8:	09 f4       	brne	.+2      	; 0x1cec <main+0x9ae>
    1cea:	5f c0       	rjmp	.+190    	; 0x1daa <main+0xa6c>
    1cec:	43 94       	inc	r4
    1cee:	9e cf       	rjmp	.-196    	; 0x1c2c <main+0x8ee>
main():
/home/adam/bsides-leeds-2026-badge/firmware/firmware.ino:531
  leftPassed = false;
  rightPassed = false;

  for (uint8_t round = 0; round < 7; ++round) {
    for (uint8_t runnerLed = 0; runnerLed < LEDS_PER_EYE; ++runnerLed) {
      showStopTheLightTwoPlayerFrame(
    1cf0:	1e 8e       	std	Y+30, r1	; 0x1e
    1cf2:	be cf       	rjmp	.-132    	; 0x1c70 <main+0x932>
playStopTheLightTwoPlayerLevel():
/home/adam/bsides-leeds-2026-badge/firmware/firmware.ino:547
        if (leftActive && !leftAnswered && (pressedMask & (LEFT_BLUE_MASK | LEFT_RED_MASK | LEFT_GREEN_MASK))) {
          leftAnswered = true;
          leftPassed = runnerLed == targetLed;
        }

        if (rightActive && !rightAnswered && (pressedMask & (RIGHT_BLUE_MASK | RIGHT_RED_MASK | RIGHT_GREEN_MASK))) {
    1cf4:	ff 20       	and	r15, r15
    1cf6:	81 f0       	breq	.+32     	; 0x1d18 <main+0x9da>
    1cf8:	c1 10       	cpse	r12, r1
    1cfa:	09 c0       	rjmp	.+18     	; 0x1d0e <main+0x9d0>
    1cfc:	88 73       	andi	r24, 0x38	; 56
    1cfe:	09 f4       	brne	.+2      	; 0x1d02 <main+0x9c4>
    1d00:	58 c0       	rjmp	.+176    	; 0x1db2 <main+0xa74>
/home/adam/bsides-leeds-2026-badge/firmware/firmware.ino:549
          rightAnswered = true;
          rightPassed = runnerLed == targetLed;
    1d02:	b1 e0       	ldi	r27, 0x01	; 1
    1d04:	be 8b       	std	Y+22, r27	; 0x16
    1d06:	ea 8d       	ldd	r30, Y+26	; 0x1a
    1d08:	fd 89       	ldd	r31, Y+21	; 0x15
    1d0a:	ef 13       	cpse	r30, r31
    1d0c:	1e 8a       	std	Y+22, r1	; 0x16
/home/adam/bsides-leeds-2026-badge/firmware/firmware.ino:552
        }

        if (leftAnswered && rightAnswered) {
    1d0e:	d1 10       	cpse	r13, r1
    1d10:	ce c0       	rjmp	.+412    	; 0x1eae <main+0xb70>
    1d12:	cc 24       	eor	r12, r12
    1d14:	c3 94       	inc	r12
    1d16:	06 c0       	rjmp	.+12     	; 0x1d24 <main+0x9e6>
    1d18:	dd 20       	and	r13, r13
    1d1a:	21 f0       	breq	.+8      	; 0x1d24 <main+0x9e6>
    1d1c:	c1 10       	cpse	r12, r1
    1d1e:	cb c0       	rjmp	.+406    	; 0x1eb6 <main+0xb78>
    1d20:	dd 24       	eor	r13, r13
    1d22:	d3 94       	inc	r13
_delay_ms():
/home/adam/.arduino15/packages/DxCore/tools/avr-gcc/7.3.0-atmel3.6.1-azduino7b1/avr/include/util/delay.h:187
    1d24:	87 ea       	ldi	r24, 0xA7	; 167
    1d26:	91 e6       	ldi	r25, 0x61	; 97
    1d28:	01 97       	sbiw	r24, 0x01	; 1
    1d2a:	f1 f7       	brne	.-4      	; 0x1d28 <main+0x9ea>
    1d2c:	00 c0       	rjmp	.+0      	; 0x1d2e <main+0x9f0>
    1d2e:	00 00       	nop
playStopTheLightTwoPlayerLevel():
/home/adam/bsides-leeds-2026-badge/firmware/firmware.ino:557
          return;
        }

        delay(5);
        elapsedMs += 5;
    1d30:	95 e0       	ldi	r25, 0x05	; 5
    1d32:	59 0e       	add	r5, r25
/home/adam/bsides-leeds-2026-badge/firmware/firmware.ino:539
        leftActive && !leftAnswered,
        rightActive && !rightAnswered
      );

      uint8_t elapsedMs = 0;
      while (elapsedMs < iterationIntervalMs && !(leftAnswered && rightAnswered)) {
    1d34:	af 89       	ldd	r26, Y+23	; 0x17
    1d36:	5a 16       	cp	r5, r26
    1d38:	08 f4       	brcc	.+2      	; 0x1d3c <main+0x9fe>
    1d3a:	ba cf       	rjmp	.-140    	; 0x1cb0 <main+0x972>
/home/adam/bsides-leeds-2026-badge/firmware/firmware.ino:560

        delay(5);
        elapsedMs += 5;
      }

      if (leftAnswered && rightAnswered) {
    1d3c:	dd 20       	and	r13, r13
    1d3e:	11 f0       	breq	.+4      	; 0x1d44 <main+0xa06>
    1d40:	c1 10       	cpse	r12, r1
    1d42:	0d c0       	rjmp	.+26     	; 0x1d5e <main+0xa20>
    1d44:	bf ef       	ldi	r27, 0xFF	; 255
    1d46:	6b 1a       	sub	r6, r27
    1d48:	7b 0a       	sbc	r7, r27
/home/adam/bsides-leeds-2026-badge/firmware/firmware.ino:530

  leftPassed = false;
  rightPassed = false;

  for (uint8_t round = 0; round < 7; ++round) {
    for (uint8_t runnerLed = 0; runnerLed < LEDS_PER_EYE; ++runnerLed) {
    1d4a:	e9 e0       	ldi	r30, 0x09	; 9
    1d4c:	6e 16       	cp	r6, r30
    1d4e:	71 04       	cpc	r7, r1
    1d50:	09 f0       	breq	.+2      	; 0x1d54 <main+0xa16>
    1d52:	81 cf       	rjmp	.-254    	; 0x1c56 <main+0x918>
    1d54:	fd 8d       	ldd	r31, Y+29	; 0x1d
    1d56:	f1 50       	subi	r31, 0x01	; 1
    1d58:	fd 8f       	std	Y+29, r31	; 0x1d
/home/adam/bsides-leeds-2026-badge/firmware/firmware.ino:529
  bool rightAnswered = !rightActive;

  leftPassed = false;
  rightPassed = false;

  for (uint8_t round = 0; round < 7; ++round) {
    1d5a:	f1 11       	cpse	r31, r1
    1d5c:	7a cf       	rjmp	.-268    	; 0x1c52 <main+0x914>
playStopTheLightTwoPlayer():
/home/adam/bsides-leeds-2026-badge/firmware/firmware.ino:585

    bool leftPassed = false;
    bool rightPassed = false;
    playStopTheLightTwoPlayerLevel(intervalMs, leftActive, rightActive, leftPassed, rightPassed);

    if (leftActive) {
    1d5e:	ee 20       	and	r14, r14
    1d60:	51 f1       	breq	.+84     	; 0x1db6 <main+0xa78>
/home/adam/bsides-leeds-2026-badge/firmware/firmware.ino:586
      if (leftPassed) {
    1d62:	b1 10       	cpse	r11, r1
    1d64:	2a c0       	rjmp	.+84     	; 0x1dba <main+0xa7c>
/home/adam/bsides-leeds-2026-badge/firmware/firmware.ino:590
        leftScore = level + 1;
      } else {
        leftActive = false;
        flashPlayerEye(PLAYER_LEFT, COLOR_RED);
    1d66:	22 e0       	ldi	r18, 0x02	; 2
    1d68:	4f a1       	ldd	r20, Y+39	; 0x27
    1d6a:	58 a5       	ldd	r21, Y+40	; 0x28
    1d6c:	69 a5       	ldd	r22, Y+41	; 0x29
    1d6e:	80 e0       	ldi	r24, 0x00	; 0
    1d70:	89 d7       	rcall	.+3858   	; 0x2c84 <__TEXT_REGION_LENGTH__+0xc84>
/home/adam/bsides-leeds-2026-badge/firmware/firmware.ino:594
      }
    }

    if (rightActive) {
    1d72:	eb 2c       	mov	r14, r11
    1d74:	ff 20       	and	r15, r15
    1d76:	51 f0       	breq	.+20     	; 0x1d8c <main+0xa4e>
    1d78:	fe 88       	ldd	r15, Y+22	; 0x16
/home/adam/bsides-leeds-2026-badge/firmware/firmware.ino:595
      if (rightPassed) {
    1d7a:	2e 89       	ldd	r18, Y+22	; 0x16
    1d7c:	21 11       	cpse	r18, r1
    1d7e:	1f c0       	rjmp	.+62     	; 0x1dbe <main+0xa80>
/home/adam/bsides-leeds-2026-badge/firmware/firmware.ino:599
        rightScore = level + 1;
      } else {
        rightActive = false;
        flashPlayerEye(PLAYER_RIGHT, COLOR_RED);
    1d80:	22 e0       	ldi	r18, 0x02	; 2
    1d82:	43 2d       	mov	r20, r3
    1d84:	58 8d       	ldd	r21, Y+24	; 0x18
    1d86:	69 8d       	ldd	r22, Y+25	; 0x19
    1d88:	81 e0       	ldi	r24, 0x01	; 1
    1d8a:	7c d7       	rcall	.+3832   	; 0x2c84 <__TEXT_REGION_LENGTH__+0xc84>
/home/adam/bsides-leeds-2026-badge/firmware/firmware.ino:603
      }
    }

    waitForAllTouchPadsReleased();
    1d8c:	30 d9       	rcall	.-3488   	; 0xfee <waitForAllTouchPadsReleased()>
/home/adam/bsides-leeds-2026-badge/firmware/firmware.ino:605

    if (leftScore != rightScore || (!leftActive && !rightActive)) {
    1d8e:	4b 8d       	ldd	r20, Y+27	; 0x1b
    1d90:	8c 8d       	ldd	r24, Y+28	; 0x1c
    1d92:	48 13       	cpse	r20, r24
    1d94:	0a c0       	rjmp	.+20     	; 0x1daa <main+0xa6c>
    1d96:	e1 10       	cpse	r14, r1
    1d98:	02 c0       	rjmp	.+4      	; 0x1d9e <main+0xa60>
    1d9a:	ff 20       	and	r15, r15
    1d9c:	31 f0       	breq	.+12     	; 0x1daa <main+0xa6c>
/home/adam/bsides-leeds-2026-badge/firmware/firmware.ino:576
  bool rightActive = true;
  uint8_t leftScore = 0;
  uint8_t rightScore = 0;
  uint8_t level = 0;

  for (uint8_t intervalMs = 200; intervalMs > 50; intervalMs -= 20) {
    1d9e:	9f 89       	ldd	r25, Y+23	; 0x17
    1da0:	94 51       	subi	r25, 0x14	; 20
    1da2:	9f 8b       	std	Y+23, r25	; 0x17
    1da4:	98 32       	cpi	r25, 0x28	; 40
    1da6:	09 f0       	breq	.+2      	; 0x1daa <main+0xa6c>
    1da8:	9c cf       	rjmp	.-200    	; 0x1ce2 <main+0x9a4>
/home/adam/bsides-leeds-2026-badge/firmware/firmware.ino:612
    }

    ++level;
  }

  showTwoPlayerResult(leftScore, rightScore);
    1daa:	6c 8d       	ldd	r22, Y+28	; 0x1c
    1dac:	8b 8d       	ldd	r24, Y+27	; 0x1b
playFollowTheSequenceTwoPlayer():
/home/adam/bsides-leeds-2026-badge/firmware/firmware.ino:877
    if (leftScore != rightScore || (!leftActive && !rightActive)) {
      break;
    }
  }

  showTwoPlayerResult(leftScore, rightScore);
    1dae:	28 d7       	rcall	.+3664   	; 0x2c00 <__TEXT_REGION_LENGTH__+0xc00>
    1db0:	b5 ce       	rjmp	.-662    	; 0x1b1c <main+0x7de>
playStopTheLightTwoPlayerLevel():
/home/adam/bsides-leeds-2026-badge/firmware/firmware.ino:547
        if (leftActive && !leftAnswered && (pressedMask & (LEFT_BLUE_MASK | LEFT_RED_MASK | LEFT_GREEN_MASK))) {
          leftAnswered = true;
          leftPassed = runnerLed == targetLed;
        }

        if (rightActive && !rightAnswered && (pressedMask & (RIGHT_BLUE_MASK | RIGHT_RED_MASK | RIGHT_GREEN_MASK))) {
    1db2:	c1 2c       	mov	r12, r1
    1db4:	b7 cf       	rjmp	.-146    	; 0x1d24 <main+0x9e6>
playStopTheLightTwoPlayer():
/home/adam/bsides-leeds-2026-badge/firmware/firmware.ino:585

    bool leftPassed = false;
    bool rightPassed = false;
    playStopTheLightTwoPlayerLevel(intervalMs, leftActive, rightActive, leftPassed, rightPassed);

    if (leftActive) {
    1db6:	b1 2c       	mov	r11, r1
    1db8:	dc cf       	rjmp	.-72     	; 0x1d72 <main+0xa34>
main():
/home/adam/bsides-leeds-2026-badge/firmware/firmware.ino:587
      if (leftPassed) {
        leftScore = level + 1;
    1dba:	4b 8e       	std	Y+27, r4	; 0x1b
    1dbc:	da cf       	rjmp	.-76     	; 0x1d72 <main+0xa34>
/home/adam/bsides-leeds-2026-badge/firmware/firmware.ino:596
      }
    }

    if (rightActive) {
      if (rightPassed) {
        rightScore = level + 1;
    1dbe:	4c 8e       	std	Y+28, r4	; 0x1c
    1dc0:	e5 cf       	rjmp	.-54     	; 0x1d8c <main+0xa4e>
playFindTheSequenceTwoPlayer():
/home/adam/bsides-leeds-2026-badge/firmware/firmware.ino:1036
  return foundLength;
}

bool playFindTheSequenceTwoPlayer()
{
  enableRebootOnButton();
    1dc2:	13 d5       	rcall	.+2598   	; 0x27ea <__TEXT_REGION_LENGTH__+0x7ea>
/home/adam/bsides-leeds-2026-badge/firmware/firmware.ino:1039
  uint8_t leftSequence[FIND_SEQUENCE_LENGTH];
  uint8_t rightSequence[FIND_SEQUENCE_LENGTH];
  createRandomSequence(leftSequence, FIND_SEQUENCE_LENGTH);
    1dc4:	67 e0       	ldi	r22, 0x07	; 7
    1dc6:	ce 01       	movw	r24, r28
    1dc8:	0b 96       	adiw	r24, 0x0b	; 11
    1dca:	21 d6       	rcall	.+3138   	; 0x2a0e <__TEXT_REGION_LENGTH__+0xa0e>
/home/adam/bsides-leeds-2026-badge/firmware/firmware.ino:1040
  createDifferentRandomSequence(leftSequence, rightSequence, FIND_SEQUENCE_LENGTH);
    1dcc:	47 e0       	ldi	r20, 0x07	; 7
    1dce:	be 01       	movw	r22, r28
    1dd0:	6f 5f       	subi	r22, 0xFF	; 255
    1dd2:	7f 4f       	sbci	r23, 0xFF	; 255
    1dd4:	ce 01       	movw	r24, r28
    1dd6:	0b 96       	adiw	r24, 0x0b	; 11
    1dd8:	2f d6       	rcall	.+3166   	; 0x2a38 <__TEXT_REGION_LENGTH__+0xa38>
/home/adam/bsides-leeds-2026-badge/firmware/firmware.ino:1042

  showFindSequencePreviewForPlayer(PLAYER_LEFT, leftSequence);
    1dda:	be 01       	movw	r22, r28
    1ddc:	65 5f       	subi	r22, 0xF5	; 245
    1dde:	7f 4f       	sbci	r23, 0xFF	; 255
    1de0:	80 e0       	ldi	r24, 0x00	; 0
    1de2:	c4 d6       	rcall	.+3464   	; 0x2b6c <__TEXT_REGION_LENGTH__+0xb6c>
/home/adam/bsides-leeds-2026-badge/firmware/firmware.ino:1043
  const uint8_t leftScore = playFindTheSequenceForPlayer(PLAYER_LEFT, leftSequence);
    1de4:	47 e0       	ldi	r20, 0x07	; 7
    1de6:	be 01       	movw	r22, r28
    1de8:	65 5f       	subi	r22, 0xF5	; 245
    1dea:	7f 4f       	sbci	r23, 0xFF	; 255
    1dec:	80 e0       	ldi	r24, 0x00	; 0
    1dee:	3c d8       	rcall	.-3976   	; 0xe68 <playFindTheSequenceForPlayer(unsigned char, unsigned char const*, unsigned char)>
    1df0:	e8 2e       	mov	r14, r24
delay():
    1df2:	6c e2       	ldi	r22, 0x2C	; 44
    1df4:	71 e0       	ldi	r23, 0x01	; 1
    1df6:	80 e0       	ldi	r24, 0x00	; 0
    1df8:	90 e0       	ldi	r25, 0x00	; 0
    1dfa:	b2 d1       	rcall	.+868    	; 0x2160 <__TEXT_REGION_LENGTH__+0x160>
playFindTheSequenceTwoPlayer():
/home/adam/bsides-leeds-2026-badge/firmware/firmware.ino:1046
  delay(300);

  uint8_t rightScoreNeededToWin = leftScore + 1;
    1dfc:	ff 24       	eor	r15, r15
    1dfe:	f3 94       	inc	r15
    1e00:	fe 0c       	add	r15, r14
/home/adam/bsides-leeds-2026-badge/firmware/firmware.ino:1051
  if (rightScoreNeededToWin > FIND_SEQUENCE_LENGTH) {
    rightScoreNeededToWin = FIND_SEQUENCE_LENGTH;
  }

  showFindSequencePreviewForPlayer(PLAYER_RIGHT, rightSequence);
    1e02:	be 01       	movw	r22, r28
    1e04:	6f 5f       	subi	r22, 0xFF	; 255
    1e06:	7f 4f       	sbci	r23, 0xFF	; 255
    1e08:	81 e0       	ldi	r24, 0x01	; 1
    1e0a:	b0 d6       	rcall	.+3424   	; 0x2b6c <__TEXT_REGION_LENGTH__+0xb6c>
/home/adam/bsides-leeds-2026-badge/firmware/firmware.ino:1056
  const uint8_t rightScore = playFindTheSequenceForPlayer(
    PLAYER_RIGHT,
    rightSequence,
    rightScoreNeededToWin
  );
    1e0c:	4f 2d       	mov	r20, r15
    1e0e:	48 30       	cpi	r20, 0x08	; 8
    1e10:	08 f0       	brcs	.+2      	; 0x1e14 <main+0xad6>
    1e12:	47 e0       	ldi	r20, 0x07	; 7
    1e14:	be 01       	movw	r22, r28
    1e16:	6f 5f       	subi	r22, 0xFF	; 255
    1e18:	7f 4f       	sbci	r23, 0xFF	; 255
    1e1a:	81 e0       	ldi	r24, 0x01	; 1
    1e1c:	25 d8       	rcall	.-4022   	; 0xe68 <playFindTheSequenceForPlayer(unsigned char, unsigned char const*, unsigned char)>
/home/adam/bsides-leeds-2026-badge/firmware/firmware.ino:1058

  showTwoPlayerResult(leftScore, rightScore);
    1e1e:	68 2f       	mov	r22, r24
    1e20:	8e 2d       	mov	r24, r14
    1e22:	c5 cf       	rjmp	.-118    	; 0x1dae <main+0xa70>
playFollowTheSequenceTwoPlayer():
/home/adam/bsides-leeds-2026-badge/firmware/firmware.ino:853
    if (!leftActive && !rightActive) {
      break;
    }

    if (leftActive) {
      if (playFollowTheSequenceLevelForPlayer(PLAYER_LEFT, leftSequence, level)) {
    1e24:	4f 2d       	mov	r20, r15
    1e26:	be 01       	movw	r22, r28
    1e28:	65 5f       	subi	r22, 0xF5	; 245
    1e2a:	7f 4f       	sbci	r23, 0xFF	; 255
    1e2c:	80 e0       	ldi	r24, 0x00	; 0
    1e2e:	70 d8       	rcall	.-3872   	; 0xf10 <playFollowTheSequenceLevelForPlayer(unsigned char, unsigned char const*, unsigned char)>
    1e30:	d8 2e       	mov	r13, r24
    1e32:	88 23       	and	r24, r24
    1e34:	21 f1       	breq	.+72     	; 0x1e7e <main+0xb40>
/home/adam/bsides-leeds-2026-badge/firmware/firmware.ino:855
        leftScore = level;
        flashPlayerEye(PLAYER_LEFT, COLOR_GREEN, 1);
    1e36:	21 e0       	ldi	r18, 0x01	; 1
    1e38:	68 2d       	mov	r22, r8
    1e3a:	a3 01       	movw	r20, r6
    1e3c:	80 e0       	ldi	r24, 0x00	; 0
    1e3e:	22 d7       	rcall	.+3652   	; 0x2c84 <__TEXT_REGION_LENGTH__+0xc84>
    1e40:	cf 2c       	mov	r12, r15
/home/adam/bsides-leeds-2026-badge/firmware/firmware.ino:862
        leftActive = false;
        flashPlayerEye(PLAYER_LEFT, COLOR_RED);
      }
    }

    if (rightActive) {
    1e42:	ee 20       	and	r14, r14
    1e44:	81 f0       	breq	.+32     	; 0x1e66 <main+0xb28>
/home/adam/bsides-leeds-2026-badge/firmware/firmware.ino:863
      if (playFollowTheSequenceLevelForPlayer(PLAYER_RIGHT, rightSequence, level)) {
    1e46:	4f 2d       	mov	r20, r15
    1e48:	be 01       	movw	r22, r28
    1e4a:	6f 5f       	subi	r22, 0xFF	; 255
    1e4c:	7f 4f       	sbci	r23, 0xFF	; 255
    1e4e:	81 e0       	ldi	r24, 0x01	; 1
    1e50:	5f d8       	rcall	.-3906   	; 0xf10 <playFollowTheSequenceLevelForPlayer(unsigned char, unsigned char const*, unsigned char)>
    1e52:	e8 2e       	mov	r14, r24
    1e54:	88 23       	and	r24, r24
    1e56:	d1 f0       	breq	.+52     	; 0x1e8c <main+0xb4e>
/home/adam/bsides-leeds-2026-badge/firmware/firmware.ino:865
        rightScore = level;
        flashPlayerEye(PLAYER_RIGHT, COLOR_GREEN, 1);
    1e58:	21 e0       	ldi	r18, 0x01	; 1
    1e5a:	49 a1       	ldd	r20, Y+33	; 0x21
    1e5c:	5a a1       	ldd	r21, Y+34	; 0x22
    1e5e:	6b a1       	ldd	r22, Y+35	; 0x23
    1e60:	81 e0       	ldi	r24, 0x01	; 1
    1e62:	10 d7       	rcall	.+3616   	; 0x2c84 <__TEXT_REGION_LENGTH__+0xc84>
    1e64:	bf 2c       	mov	r11, r15
/home/adam/bsides-leeds-2026-badge/firmware/firmware.ino:872
        rightActive = false;
        flashPlayerEye(PLAYER_RIGHT, COLOR_RED);
      }
    }

    if (leftScore != rightScore || (!leftActive && !rightActive)) {
    1e66:	cb 10       	cpse	r12, r11
    1e68:	71 cd       	rjmp	.-1310   	; 0x194c <main+0x60e>
    1e6a:	d1 10       	cpse	r13, r1
    1e6c:	03 c0       	rjmp	.+6      	; 0x1e74 <main+0xb36>
    1e6e:	ee 20       	and	r14, r14
    1e70:	09 f4       	brne	.+2      	; 0x1e74 <main+0xb36>
    1e72:	6c cd       	rjmp	.-1320   	; 0x194c <main+0x60e>
/home/adam/bsides-leeds-2026-badge/firmware/firmware.ino:847
  bool leftActive = true;
  bool rightActive = true;
  uint8_t leftScore = 0;
  uint8_t rightScore = 0;

  for (uint8_t level = MEMORY_START_LEVEL; level < NUM_SEQUENCE_LEVELS; ++level) {
    1e74:	f3 94       	inc	r15
    1e76:	aa e0       	ldi	r26, 0x0A	; 10
    1e78:	fa 12       	cpse	r15, r26
    1e7a:	64 cd       	rjmp	.-1336   	; 0x1944 <main+0x606>
    1e7c:	67 cd       	rjmp	.-1330   	; 0x194c <main+0x60e>
/home/adam/bsides-leeds-2026-badge/firmware/firmware.ino:858
      if (playFollowTheSequenceLevelForPlayer(PLAYER_LEFT, leftSequence, level)) {
        leftScore = level;
        flashPlayerEye(PLAYER_LEFT, COLOR_GREEN, 1);
      } else {
        leftActive = false;
        flashPlayerEye(PLAYER_LEFT, COLOR_RED);
    1e7e:	22 e0       	ldi	r18, 0x02	; 2
    1e80:	4c a1       	ldd	r20, Y+36	; 0x24
    1e82:	5d a1       	ldd	r21, Y+37	; 0x25
    1e84:	6e a1       	ldd	r22, Y+38	; 0x26
    1e86:	80 e0       	ldi	r24, 0x00	; 0
    1e88:	fd d6       	rcall	.+3578   	; 0x2c84 <__TEXT_REGION_LENGTH__+0xc84>
    1e8a:	db cf       	rjmp	.-74     	; 0x1e42 <main+0xb04>
/home/adam/bsides-leeds-2026-badge/firmware/firmware.ino:868
      if (playFollowTheSequenceLevelForPlayer(PLAYER_RIGHT, rightSequence, level)) {
        rightScore = level;
        flashPlayerEye(PLAYER_RIGHT, COLOR_GREEN, 1);
      } else {
        rightActive = false;
        flashPlayerEye(PLAYER_RIGHT, COLOR_RED);
    1e8c:	22 e0       	ldi	r18, 0x02	; 2
    1e8e:	4a a5       	ldd	r20, Y+42	; 0x2a
    1e90:	5b a5       	ldd	r21, Y+43	; 0x2b
    1e92:	6c a5       	ldd	r22, Y+44	; 0x2c
    1e94:	81 e0       	ldi	r24, 0x01	; 1
    1e96:	f6 d6       	rcall	.+3564   	; 0x2c84 <__TEXT_REGION_LENGTH__+0xc84>
    1e98:	e6 cf       	rjmp	.-52     	; 0x1e66 <main+0xb28>
loop():
/home/adam/bsides-leeds-2026-badge/firmware/firmware.ino:1408
      else if (buttonLowTime > 0) {
        animationStep = 0;
      }
    }

    if (totalIntervalMs > WAKE_TIMEOUT_MS) {
    1e9a:	b1 ea       	ldi	r27, 0xA1	; 161
    1e9c:	4b 16       	cp	r4, r27
    1e9e:	bb eb       	ldi	r27, 0xBB	; 187
    1ea0:	5b 06       	cpc	r5, r27
    1ea2:	bd e0       	ldi	r27, 0x0D	; 13
    1ea4:	6b 06       	cpc	r6, r27
    1ea6:	71 04       	cpc	r7, r1
    1ea8:	08 f4       	brcc	.+2      	; 0x1eac <main+0xb6e>
    1eaa:	20 cb       	rjmp	.-2496   	; 0x14ec <main+0x1ae>
    1eac:	25 cd       	rjmp	.-1462   	; 0x18f8 <main+0x5ba>
playStopTheLightTwoPlayer():
/home/adam/bsides-leeds-2026-badge/firmware/firmware.ino:585

    bool leftPassed = false;
    bool rightPassed = false;
    playStopTheLightTwoPlayerLevel(intervalMs, leftActive, rightActive, leftPassed, rightPassed);

    if (leftActive) {
    1eae:	e1 10       	cpse	r14, r1
    1eb0:	58 cf       	rjmp	.-336    	; 0x1d62 <main+0xa24>
    1eb2:	fe 88       	ldd	r15, Y+22	; 0x16
    1eb4:	62 cf       	rjmp	.-316    	; 0x1d7a <main+0xa3c>
    1eb6:	e1 10       	cpse	r14, r1
    1eb8:	54 cf       	rjmp	.-344    	; 0x1d62 <main+0xa24>
    1eba:	f1 2c       	mov	r15, r1
    1ebc:	67 cf       	rjmp	.-306    	; 0x1d8c <main+0xa4e>
playStopTheLightTwoPlayerLevel():
/home/adam/bsides-leeds-2026-badge/firmware/firmware.ino:547
        if (leftActive && !leftAnswered && (pressedMask & (LEFT_BLUE_MASK | LEFT_RED_MASK | LEFT_GREEN_MASK))) {
          leftAnswered = true;
          leftPassed = runnerLed == targetLed;
        }

        if (rightActive && !rightAnswered && (pressedMask & (RIGHT_BLUE_MASK | RIGHT_RED_MASK | RIGHT_GREEN_MASK))) {
    1ebe:	f1 10       	cpse	r15, r1
    1ec0:	1b cf       	rjmp	.-458    	; 0x1cf8 <main+0x9ba>
    1ec2:	df 2c       	mov	r13, r15
    1ec4:	2f cf       	rjmp	.-418    	; 0x1d24 <main+0x9e6>

00001ec6 <_GLOBAL__sub_I_touchButtons>:
_GLOBAL__sub_I_touchButtons():
/home/adam/.arduino15/packages/megaTinyCore/hardware/megaavr/2.6.11/libraries/tinyNeoPixel_Static/tinyNeoPixel_Static.cpp:53

#include "tinyNeoPixel_Static.h"

// Constructor when length, pin and type are known at compile-time:
tinyNeoPixel::tinyNeoPixel(uint16_t n, uint8_t p, neoPixelType t, uint8_t *pxl) :
  latchTime(50), brightness(0), pixels(pxl), endTime(0) {
    1ec6:	eb ed       	ldi	r30, 0xDB	; 219
    1ec8:	fe e3       	ldi	r31, 0x3E	; 62
    1eca:	82 e3       	ldi	r24, 0x32	; 50
    1ecc:	90 e0       	ldi	r25, 0x00	; 0
    1ece:	84 83       	std	Z+4, r24	; 0x04
    1ed0:	95 83       	std	Z+5, r25	; 0x05
    1ed2:	17 82       	std	Z+7, r1	; 0x07
    1ed4:	85 e0       	ldi	r24, 0x05	; 5
    1ed6:	9e e3       	ldi	r25, 0x3E	; 62
    1ed8:	80 87       	std	Z+8, r24	; 0x08
    1eda:	91 87       	std	Z+9, r25	; 0x09
    1edc:	16 86       	std	Z+14, r1	; 0x0e
    1ede:	17 86       	std	Z+15, r1	; 0x0f
    1ee0:	10 8a       	std	Z+16, r1	; 0x10
    1ee2:	11 8a       	std	Z+17, r1	; 0x11
/home/adam/.arduino15/packages/megaTinyCore/hardware/megaavr/2.6.11/libraries/tinyNeoPixel_Static/tinyNeoPixel_Static.cpp:55
  // boolean oldThreeBytesPerPixel = (wOffset == rOffset); // false if RGBW
  wOffset = (t >> 6) & 0b11; // See notes in header file
    1ee4:	81 e0       	ldi	r24, 0x01	; 1
    1ee6:	85 87       	std	Z+13, r24	; 0x0d
/home/adam/.arduino15/packages/megaTinyCore/hardware/megaavr/2.6.11/libraries/tinyNeoPixel_Static/tinyNeoPixel_Static.cpp:56
  rOffset = (t >> 4) & 0b11; // regarding R/G/B/W offsets
    1ee8:	82 87       	std	Z+10, r24	; 0x0a
/home/adam/.arduino15/packages/megaTinyCore/hardware/megaavr/2.6.11/libraries/tinyNeoPixel_Static/tinyNeoPixel_Static.cpp:57
  gOffset = (t >> 2) & 0b11;
    1eea:	13 86       	std	Z+11, r1	; 0x0b
/home/adam/.arduino15/packages/megaTinyCore/hardware/megaavr/2.6.11/libraries/tinyNeoPixel_Static/tinyNeoPixel_Static.cpp:58
  bOffset =  t       & 0b11;
    1eec:	82 e0       	ldi	r24, 0x02	; 2
    1eee:	84 87       	std	Z+12, r24	; 0x0c
/home/adam/.arduino15/packages/megaTinyCore/hardware/megaavr/2.6.11/libraries/tinyNeoPixel_Static/tinyNeoPixel_Static.cpp:59
  numBytes = n * ((wOffset == rOffset) ? 3 : 4);
    1ef0:	86 e3       	ldi	r24, 0x36	; 54
    1ef2:	90 e0       	ldi	r25, 0x00	; 0
    1ef4:	82 83       	std	Z+2, r24	; 0x02
    1ef6:	93 83       	std	Z+3, r25	; 0x03
/home/adam/.arduino15/packages/megaTinyCore/hardware/megaavr/2.6.11/libraries/tinyNeoPixel_Static/tinyNeoPixel_Static.cpp:60
  numLEDs = n;
    1ef8:	82 e1       	ldi	r24, 0x12	; 18
    1efa:	90 e0       	ldi	r25, 0x00	; 0
    1efc:	80 83       	st	Z, r24
    1efe:	91 83       	std	Z+1, r25	; 0x01
/home/adam/.arduino15/packages/megaTinyCore/hardware/megaavr/2.6.11/libraries/tinyNeoPixel_Static/tinyNeoPixel_Static.cpp:61
  pin = p;
    1f00:	84 e0       	ldi	r24, 0x04	; 4
    1f02:	86 83       	std	Z+6, r24	; 0x06
/home/adam/.arduino15/packages/megaTinyCore/hardware/megaavr/2.6.11/libraries/tinyNeoPixel_Static/tinyNeoPixel_Static.cpp:62
  port    = portOutputRegister(digitalPinToPort(p));
    1f04:	84 e2       	ldi	r24, 0x24	; 36
    1f06:	94 e0       	ldi	r25, 0x04	; 4
    1f08:	82 8b       	std	Z+18, r24	; 0x12
    1f0a:	93 8b       	std	Z+19, r25	; 0x13
/home/adam/.arduino15/packages/megaTinyCore/hardware/megaavr/2.6.11/libraries/tinyNeoPixel_Static/tinyNeoPixel_Static.cpp:63
  pinMask = digitalPinToBitMask(p);
    1f0c:	88 e0       	ldi	r24, 0x08	; 8
    1f0e:	84 8b       	std	Z+20, r24	; 0x14
/home/adam/bsides-leeds-2026-badge/firmware/firmware.ino:1414
      totalIntervalMs = 0;
      animationStep = 0;
      enterSleep();
    }
  }
}
    1f10:	08 95       	ret

00001f12 <__udivmodhi4>:
__udivmodhi4():
/home/admin/Arduino/toolchain-avr-special-master/gcc-build/avr/avrxmega3/short-calls/libgcc/../../../../../gcc/libgcc/config/avr/lib1funcs.S:1408
    1f12:	aa 1b       	sub	r26, r26
/home/admin/Arduino/toolchain-avr-special-master/gcc-build/avr/avrxmega3/short-calls/libgcc/../../../../../gcc/libgcc/config/avr/lib1funcs.S:1409
    1f14:	bb 1b       	sub	r27, r27
/home/admin/Arduino/toolchain-avr-special-master/gcc-build/avr/avrxmega3/short-calls/libgcc/../../../../../gcc/libgcc/config/avr/lib1funcs.S:1410
    1f16:	51 e1       	ldi	r21, 0x11	; 17
/home/admin/Arduino/toolchain-avr-special-master/gcc-build/avr/avrxmega3/short-calls/libgcc/../../../../../gcc/libgcc/config/avr/lib1funcs.S:1411
    1f18:	07 c0       	rjmp	.+14     	; 0x1f28 <__udivmodhi4_ep>

00001f1a <__udivmodhi4_loop>:
/home/admin/Arduino/toolchain-avr-special-master/gcc-build/avr/avrxmega3/short-calls/libgcc/../../../../../gcc/libgcc/config/avr/lib1funcs.S:1413
    1f1a:	aa 1f       	adc	r26, r26
/home/admin/Arduino/toolchain-avr-special-master/gcc-build/avr/avrxmega3/short-calls/libgcc/../../../../../gcc/libgcc/config/avr/lib1funcs.S:1414
    1f1c:	bb 1f       	adc	r27, r27
/home/admin/Arduino/toolchain-avr-special-master/gcc-build/avr/avrxmega3/short-calls/libgcc/../../../../../gcc/libgcc/config/avr/lib1funcs.S:1415
    1f1e:	a6 17       	cp	r26, r22
/home/admin/Arduino/toolchain-avr-special-master/gcc-build/avr/avrxmega3/short-calls/libgcc/../../../../../gcc/libgcc/config/avr/lib1funcs.S:1416
    1f20:	b7 07       	cpc	r27, r23
/home/admin/Arduino/toolchain-avr-special-master/gcc-build/avr/avrxmega3/short-calls/libgcc/../../../../../gcc/libgcc/config/avr/lib1funcs.S:1417
    1f22:	10 f0       	brcs	.+4      	; 0x1f28 <__udivmodhi4_ep>
/home/admin/Arduino/toolchain-avr-special-master/gcc-build/avr/avrxmega3/short-calls/libgcc/../../../../../gcc/libgcc/config/avr/lib1funcs.S:1418
    1f24:	a6 1b       	sub	r26, r22
/home/admin/Arduino/toolchain-avr-special-master/gcc-build/avr/avrxmega3/short-calls/libgcc/../../../../../gcc/libgcc/config/avr/lib1funcs.S:1419
    1f26:	b7 0b       	sbc	r27, r23

00001f28 <__udivmodhi4_ep>:
/home/admin/Arduino/toolchain-avr-special-master/gcc-build/avr/avrxmega3/short-calls/libgcc/../../../../../gcc/libgcc/config/avr/lib1funcs.S:1421
    1f28:	88 1f       	adc	r24, r24
/home/admin/Arduino/toolchain-avr-special-master/gcc-build/avr/avrxmega3/short-calls/libgcc/../../../../../gcc/libgcc/config/avr/lib1funcs.S:1422
    1f2a:	99 1f       	adc	r25, r25
/home/admin/Arduino/toolchain-avr-special-master/gcc-build/avr/avrxmega3/short-calls/libgcc/../../../../../gcc/libgcc/config/avr/lib1funcs.S:1423
    1f2c:	5a 95       	dec	r21
/home/admin/Arduino/toolchain-avr-special-master/gcc-build/avr/avrxmega3/short-calls/libgcc/../../../../../gcc/libgcc/config/avr/lib1funcs.S:1424
    1f2e:	a9 f7       	brne	.-22     	; 0x1f1a <__udivmodhi4_loop>
/home/admin/Arduino/toolchain-avr-special-master/gcc-build/avr/avrxmega3/short-calls/libgcc/../../../../../gcc/libgcc/config/avr/lib1funcs.S:1425
    1f30:	80 95       	com	r24
/home/admin/Arduino/toolchain-avr-special-master/gcc-build/avr/avrxmega3/short-calls/libgcc/../../../../../gcc/libgcc/config/avr/lib1funcs.S:1426
    1f32:	90 95       	com	r25
/home/admin/Arduino/toolchain-avr-special-master/gcc-build/avr/avrxmega3/short-calls/libgcc/../../../../../gcc/libgcc/config/avr/lib1funcs.S:1428
    1f34:	bc 01       	movw	r22, r24
/home/admin/Arduino/toolchain-avr-special-master/gcc-build/avr/avrxmega3/short-calls/libgcc/../../../../../gcc/libgcc/config/avr/lib1funcs.S:1430
    1f36:	cd 01       	movw	r24, r26
/home/admin/Arduino/toolchain-avr-special-master/gcc-build/avr/avrxmega3/short-calls/libgcc/../../../../../gcc/libgcc/config/avr/lib1funcs.S:1432
    1f38:	08 95       	ret

00001f3a <__divmodhi4>:
__divmodhi4():
/home/admin/Arduino/toolchain-avr-special-master/gcc-build/avr/avrxmega3/short-calls/libgcc/../../../../../gcc/libgcc/config/avr/lib1funcs.S:1440
    1f3a:	97 fb       	bst	r25, 7
/home/admin/Arduino/toolchain-avr-special-master/gcc-build/avr/avrxmega3/short-calls/libgcc/../../../../../gcc/libgcc/config/avr/lib1funcs.S:1441
    1f3c:	07 2e       	mov	r0, r23
/home/admin/Arduino/toolchain-avr-special-master/gcc-build/avr/avrxmega3/short-calls/libgcc/../../../../../gcc/libgcc/config/avr/lib1funcs.S:1442
    1f3e:	16 f4       	brtc	.+4      	; 0x1f44 <__divmodhi4+0xa>
/home/admin/Arduino/toolchain-avr-special-master/gcc-build/avr/avrxmega3/short-calls/libgcc/../../../../../gcc/libgcc/config/avr/lib1funcs.S:1443
    1f40:	00 94       	com	r0
/home/admin/Arduino/toolchain-avr-special-master/gcc-build/avr/avrxmega3/short-calls/libgcc/../../../../../gcc/libgcc/config/avr/lib1funcs.S:1444
    1f42:	06 d0       	rcall	.+12     	; 0x1f50 <__divmodhi4_neg1>
/home/admin/Arduino/toolchain-avr-special-master/gcc-build/avr/avrxmega3/short-calls/libgcc/../../../../../gcc/libgcc/config/avr/lib1funcs.S:1446
    1f44:	77 fd       	sbrc	r23, 7
/home/admin/Arduino/toolchain-avr-special-master/gcc-build/avr/avrxmega3/short-calls/libgcc/../../../../../gcc/libgcc/config/avr/lib1funcs.S:1447
    1f46:	08 d0       	rcall	.+16     	; 0x1f58 <__divmodhi4_neg2>
/home/admin/Arduino/toolchain-avr-special-master/gcc-build/avr/avrxmega3/short-calls/libgcc/../../../../../gcc/libgcc/config/avr/lib1funcs.S:1448
    1f48:	e4 df       	rcall	.-56     	; 0x1f12 <__udivmodhi4>
/home/admin/Arduino/toolchain-avr-special-master/gcc-build/avr/avrxmega3/short-calls/libgcc/../../../../../gcc/libgcc/config/avr/lib1funcs.S:1449
    1f4a:	07 fc       	sbrc	r0, 7
/home/admin/Arduino/toolchain-avr-special-master/gcc-build/avr/avrxmega3/short-calls/libgcc/../../../../../gcc/libgcc/config/avr/lib1funcs.S:1450
    1f4c:	05 d0       	rcall	.+10     	; 0x1f58 <__divmodhi4_neg2>
/home/admin/Arduino/toolchain-avr-special-master/gcc-build/avr/avrxmega3/short-calls/libgcc/../../../../../gcc/libgcc/config/avr/lib1funcs.S:1451
    1f4e:	3e f4       	brtc	.+14     	; 0x1f5e <__divmodhi4_exit>

00001f50 <__divmodhi4_neg1>:
/home/admin/Arduino/toolchain-avr-special-master/gcc-build/avr/avrxmega3/short-calls/libgcc/../../../../../gcc/libgcc/config/avr/lib1funcs.S:1454
    1f50:	90 95       	com	r25
/home/admin/Arduino/toolchain-avr-special-master/gcc-build/avr/avrxmega3/short-calls/libgcc/../../../../../gcc/libgcc/config/avr/lib1funcs.S:1455
    1f52:	81 95       	neg	r24
/home/admin/Arduino/toolchain-avr-special-master/gcc-build/avr/avrxmega3/short-calls/libgcc/../../../../../gcc/libgcc/config/avr/lib1funcs.S:1456
    1f54:	9f 4f       	sbci	r25, 0xFF	; 255
/home/admin/Arduino/toolchain-avr-special-master/gcc-build/avr/avrxmega3/short-calls/libgcc/../../../../../gcc/libgcc/config/avr/lib1funcs.S:1457
    1f56:	08 95       	ret

00001f58 <__divmodhi4_neg2>:
/home/admin/Arduino/toolchain-avr-special-master/gcc-build/avr/avrxmega3/short-calls/libgcc/../../../../../gcc/libgcc/config/avr/lib1funcs.S:1460
    1f58:	70 95       	com	r23
/home/admin/Arduino/toolchain-avr-special-master/gcc-build/avr/avrxmega3/short-calls/libgcc/../../../../../gcc/libgcc/config/avr/lib1funcs.S:1461
    1f5a:	61 95       	neg	r22
/home/admin/Arduino/toolchain-avr-special-master/gcc-build/avr/avrxmega3/short-calls/libgcc/../../../../../gcc/libgcc/config/avr/lib1funcs.S:1462
    1f5c:	7f 4f       	sbci	r23, 0xFF	; 255

00001f5e <__divmodhi4_exit>:
/home/admin/Arduino/toolchain-avr-special-master/gcc-build/avr/avrxmega3/short-calls/libgcc/../../../../../gcc/libgcc/config/avr/lib1funcs.S:1464
    1f5e:	08 95       	ret

00001f60 <__muluhisi3>:
__muluhisi3():
/home/admin/Arduino/toolchain-avr-special-master/gcc-build/avr/avrxmega3/short-calls/libgcc/../../../../../gcc/libgcc/config/avr/lib1funcs.S:626
    1f60:	0f d0       	rcall	.+30     	; 0x1f80 <__umulhisi3>
/home/admin/Arduino/toolchain-avr-special-master/gcc-build/avr/avrxmega3/short-calls/libgcc/../../../../../gcc/libgcc/config/avr/lib1funcs.S:627
    1f62:	a5 9f       	mul	r26, r21
/home/admin/Arduino/toolchain-avr-special-master/gcc-build/avr/avrxmega3/short-calls/libgcc/../../../../../gcc/libgcc/config/avr/lib1funcs.S:628
    1f64:	90 0d       	add	r25, r0
/home/admin/Arduino/toolchain-avr-special-master/gcc-build/avr/avrxmega3/short-calls/libgcc/../../../../../gcc/libgcc/config/avr/lib1funcs.S:629
    1f66:	b4 9f       	mul	r27, r20
/home/admin/Arduino/toolchain-avr-special-master/gcc-build/avr/avrxmega3/short-calls/libgcc/../../../../../gcc/libgcc/config/avr/lib1funcs.S:630
    1f68:	90 0d       	add	r25, r0
/home/admin/Arduino/toolchain-avr-special-master/gcc-build/avr/avrxmega3/short-calls/libgcc/../../../../../gcc/libgcc/config/avr/lib1funcs.S:631
    1f6a:	a4 9f       	mul	r26, r20
/home/admin/Arduino/toolchain-avr-special-master/gcc-build/avr/avrxmega3/short-calls/libgcc/../../../../../gcc/libgcc/config/avr/lib1funcs.S:632
    1f6c:	80 0d       	add	r24, r0
/home/admin/Arduino/toolchain-avr-special-master/gcc-build/avr/avrxmega3/short-calls/libgcc/../../../../../gcc/libgcc/config/avr/lib1funcs.S:633
    1f6e:	91 1d       	adc	r25, r1
/home/admin/Arduino/toolchain-avr-special-master/gcc-build/avr/avrxmega3/short-calls/libgcc/../../../../../gcc/libgcc/config/avr/lib1funcs.S:634
    1f70:	11 24       	eor	r1, r1
/home/admin/Arduino/toolchain-avr-special-master/gcc-build/avr/avrxmega3/short-calls/libgcc/../../../../../gcc/libgcc/config/avr/lib1funcs.S:635
    1f72:	08 95       	ret

00001f74 <__tablejump2__>:
__tablejump2__():
/home/admin/Arduino/toolchain-avr-special-master/gcc-build/avr/avrxmega3/short-calls/libgcc/../../../../../gcc/libgcc/config/avr/lib1funcs.S:2296
    1f74:	ee 0f       	add	r30, r30
/home/admin/Arduino/toolchain-avr-special-master/gcc-build/avr/avrxmega3/short-calls/libgcc/../../../../../gcc/libgcc/config/avr/lib1funcs.S:2297
    1f76:	ff 1f       	adc	r31, r31
/home/admin/Arduino/toolchain-avr-special-master/gcc-build/avr/avrxmega3/short-calls/libgcc/../../../../../gcc/libgcc/config/avr/lib1funcs.S:2328
    1f78:	05 90       	lpm	r0, Z+
/home/admin/Arduino/toolchain-avr-special-master/gcc-build/avr/avrxmega3/short-calls/libgcc/../../../../../gcc/libgcc/config/avr/lib1funcs.S:2329
    1f7a:	f4 91       	lpm	r31, Z
/home/admin/Arduino/toolchain-avr-special-master/gcc-build/avr/avrxmega3/short-calls/libgcc/../../../../../gcc/libgcc/config/avr/lib1funcs.S:2330
    1f7c:	e0 2d       	mov	r30, r0
/home/admin/Arduino/toolchain-avr-special-master/gcc-build/avr/avrxmega3/short-calls/libgcc/../../../../../gcc/libgcc/config/avr/lib1funcs.S:2331
    1f7e:	09 94       	ijmp

00001f80 <__umulhisi3>:
__umulhisi3():
/home/admin/Arduino/toolchain-avr-special-master/gcc-build/avr/avrxmega3/short-calls/libgcc/../../../../../gcc/libgcc/config/avr/lib1funcs.S:564
    1f80:	a2 9f       	mul	r26, r18
/home/admin/Arduino/toolchain-avr-special-master/gcc-build/avr/avrxmega3/short-calls/libgcc/../../../../../gcc/libgcc/config/avr/lib1funcs.S:565
    1f82:	b0 01       	movw	r22, r0
/home/admin/Arduino/toolchain-avr-special-master/gcc-build/avr/avrxmega3/short-calls/libgcc/../../../../../gcc/libgcc/config/avr/lib1funcs.S:566
    1f84:	b3 9f       	mul	r27, r19
/home/admin/Arduino/toolchain-avr-special-master/gcc-build/avr/avrxmega3/short-calls/libgcc/../../../../../gcc/libgcc/config/avr/lib1funcs.S:567
    1f86:	c0 01       	movw	r24, r0
/home/admin/Arduino/toolchain-avr-special-master/gcc-build/avr/avrxmega3/short-calls/libgcc/../../../../../gcc/libgcc/config/avr/lib1funcs.S:568
    1f88:	a3 9f       	mul	r26, r19
/home/admin/Arduino/toolchain-avr-special-master/gcc-build/avr/avrxmega3/short-calls/libgcc/../../../../../gcc/libgcc/config/avr/lib1funcs.S:578
    1f8a:	01 d0       	rcall	.+2      	; 0x1f8e <__umulhisi3+0xe>
/home/admin/Arduino/toolchain-avr-special-master/gcc-build/avr/avrxmega3/short-calls/libgcc/../../../../../gcc/libgcc/config/avr/lib1funcs.S:580
    1f8c:	b2 9f       	mul	r27, r18
/home/admin/Arduino/toolchain-avr-special-master/gcc-build/avr/avrxmega3/short-calls/libgcc/../../../../../gcc/libgcc/config/avr/lib1funcs.S:581
    1f8e:	70 0d       	add	r23, r0
/home/admin/Arduino/toolchain-avr-special-master/gcc-build/avr/avrxmega3/short-calls/libgcc/../../../../../gcc/libgcc/config/avr/lib1funcs.S:582
    1f90:	81 1d       	adc	r24, r1
/home/admin/Arduino/toolchain-avr-special-master/gcc-build/avr/avrxmega3/short-calls/libgcc/../../../../../gcc/libgcc/config/avr/lib1funcs.S:583
    1f92:	11 24       	eor	r1, r1
/home/admin/Arduino/toolchain-avr-special-master/gcc-build/avr/avrxmega3/short-calls/libgcc/../../../../../gcc/libgcc/config/avr/lib1funcs.S:584
    1f94:	91 1d       	adc	r25, r1
/home/admin/Arduino/toolchain-avr-special-master/gcc-build/avr/avrxmega3/short-calls/libgcc/../../../../../gcc/libgcc/config/avr/lib1funcs.S:585
    1f96:	08 95       	ret

00001f98 <_exit>:
exit():
/home/admin/Arduino/toolchain-avr-special-master/gcc-build/avr/avrxmega3/short-calls/libgcc/../../../../../gcc/libgcc/config/avr/lib1funcs.S:2278
    1f98:	f8 94       	cli

00001f9a <__stop_program>:
__stop_program():
/home/admin/Arduino/toolchain-avr-special-master/gcc-build/avr/avrxmega3/short-calls/libgcc/../../../../../gcc/libgcc/config/avr/lib1funcs.S:2280
    1f9a:	ff cf       	rjmp	.-2      	; 0x1f9a <__stop_program>
